

Microchip Technology PIC LITE Macro Assembler V1.45 build -152302408 
                                                                                               Wed Jan 02 13:50:13 2019

Microchip Technology Omniscient Code Generator v1.45 (Free mode) build 201711160504
     1                           	processor	16F877A
     2                           	opt	pw 120
     3                           	opt	lm
     4                           	psect	nvBANK0,global,class=BANK0,space=1,delta=1
     5                           	psect	cinit,global,class=CODE,merge=1,delta=2
     6                           	psect	cstackBANK1,global,class=BANK1,space=1,delta=1
     7                           	psect	cstackCOMMON,global,class=COMMON,space=1,delta=1
     8                           	psect	cstackBANK0,global,class=BANK0,space=1,delta=1
     9                           	psect	maintext,global,class=CODE,split=1,delta=2
    10                           	psect	text1,local,class=CODE,merge=1,delta=2,group=2
    11                           	psect	text2,local,class=CODE,merge=1,delta=2,group=2
    12                           	psect	text3,local,class=CODE,merge=1,delta=2,group=2
    13                           	psect	text4,local,class=CODE,merge=1,delta=2,group=2
    14                           	psect	text5,local,class=CODE,merge=1,delta=2
    15                           	psect	text6,local,class=CODE,merge=1,delta=2
    16                           	psect	text7,local,class=CODE,merge=1,delta=2
    17                           	psect	text8,local,class=CODE,merge=1,delta=2
    18                           	psect	text9,local,class=CODE,merge=1,delta=2,group=2
    19                           	psect	text10,local,class=CODE,merge=1,delta=2,group=2
    20                           	psect	text11,local,class=CODE,merge=1,delta=2,group=2
    21                           	psect	text12,local,class=CODE,merge=1,delta=2,group=2
    22                           	psect	text13,local,class=CODE,merge=1,delta=2,group=2
    23                           	psect	text14,local,class=CODE,merge=1,delta=2,group=2
    24                           	psect	text15,local,class=CODE,merge=1,delta=2
    25                           	psect	text16,local,class=CODE,merge=1,delta=2,group=2
    26                           	psect	maintext_split_1,global,class=CODE,split=1,delta=2
    27                           	psect	maintext_split_2,global,class=CODE,split=1,delta=2
    28                           	dabs	1,0x7E,2
    29  0000                     
    30                           ; Version 1.45
    31                           ; Generated 16/11/2017 GMT
    32                           ; 
    33                           ; Copyright © 2017, Microchip Technology Inc. and its subsidiaries ("Microchip")
    34                           ; All rights reserved.
    35                           ; 
    36                           ; This software is developed by Microchip Technology Inc. and its subsidiaries ("Microch
      +                          ip").
    37                           ; 
    38                           ; Redistribution and use in source and binary forms, with or without modification, are
    39                           ; permitted provided that the following conditions are met:
    40                           ; 
    41                           ;     1. Redistributions of source code must retain the above copyright notice, this lis
      +                          t of
    42                           ;        conditions and the following disclaimer.
    43                           ; 
    44                           ;     2. Redistributions in binary form must reproduce the above copyright notice, this 
      +                          list
    45                           ;        of conditions and the following disclaimer in the documentation and/or other
    46                           ;        materials provided with the distribution.
    47                           ; 
    48                           ;     3. Microchip's name may not be used to endorse or promote products derived from th
      +                          is
    49                           ;        software without specific prior written permission.
    50                           ; 
    51                           ; THIS SOFTWARE IS PROVIDED BY MICROCHIP "AS IS" AND ANY EXPRESS OR IMPLIED WARRANTIES,
    52                           ; INCLUDING, BUT NOT LIMITED TO, THE IMPLIED WARRANTIES OF MERCHANTABILITY AND FITNESS F
      +                          OR
    53                           ; PURPOSE ARE DISCLAIMED.  IN NO EVENT SHALL MICROCHIP BE LIABLE FOR ANY DIRECT, INDIREC
      +                          T,
    54                           ; INCIDENTAL, SPECIAL, EXEMPLARY, OR CONSEQUENTIAL DAMAGES (INCLUDING BUT NOT LIMITED TO
    55                           ; PROCUREMENT OF SUBSTITUTE GOODS OR SERVICES; LOSS OF USE, DATA OR PROFITS; OR BUSINESS
    56                           ; INTERRUPTION) HOWSOEVER CAUSED AND ON ANY THEORY OF LIABILITY, WHETHER IN CONTRACT, ST
      +                          RICT
    57                           ; LIABILITY, OR TORT (INCLUDING NEGLIGENCE OR OTHERWISE) ARISING IN ANY WAY OUT OF THE U
      +                          SE OF
    58                           ; THIS SOFTWARE, EVEN IF ADVISED OF THE POSSIBILITY OF SUCH DAMAGE.
    59                           ; 
    60                           ; 
    61                           ; Code-generator required, PIC16F877A Definitions
    62                           ; 
    63                           ; SFR Addresses
    64  0000                     	;# 
    65  0001                     	;# 
    66  0002                     	;# 
    67  0003                     	;# 
    68  0004                     	;# 
    69  0005                     	;# 
    70  0006                     	;# 
    71  0007                     	;# 
    72  0008                     	;# 
    73  0009                     	;# 
    74  000A                     	;# 
    75  000B                     	;# 
    76  000C                     	;# 
    77  000D                     	;# 
    78  000E                     	;# 
    79  000E                     	;# 
    80  000F                     	;# 
    81  0010                     	;# 
    82  0011                     	;# 
    83  0012                     	;# 
    84  0013                     	;# 
    85  0014                     	;# 
    86  0015                     	;# 
    87  0015                     	;# 
    88  0016                     	;# 
    89  0017                     	;# 
    90  0018                     	;# 
    91  0019                     	;# 
    92  001A                     	;# 
    93  001B                     	;# 
    94  001B                     	;# 
    95  001C                     	;# 
    96  001D                     	;# 
    97  001E                     	;# 
    98  001F                     	;# 
    99  0081                     	;# 
   100  0085                     	;# 
   101  0086                     	;# 
   102  0087                     	;# 
   103  0088                     	;# 
   104  0089                     	;# 
   105  008C                     	;# 
   106  008D                     	;# 
   107  008E                     	;# 
   108  0091                     	;# 
   109  0092                     	;# 
   110  0093                     	;# 
   111  0094                     	;# 
   112  0098                     	;# 
   113  0099                     	;# 
   114  009C                     	;# 
   115  009D                     	;# 
   116  009E                     	;# 
   117  009F                     	;# 
   118  010C                     	;# 
   119  010D                     	;# 
   120  010E                     	;# 
   121  010F                     	;# 
   122  018C                     	;# 
   123  018D                     	;# 
   124  0000                     	;# 
   125  0001                     	;# 
   126  0002                     	;# 
   127  0003                     	;# 
   128  0004                     	;# 
   129  0005                     	;# 
   130  0006                     	;# 
   131  0007                     	;# 
   132  0008                     	;# 
   133  0009                     	;# 
   134  000A                     	;# 
   135  000B                     	;# 
   136  000C                     	;# 
   137  000D                     	;# 
   138  000E                     	;# 
   139  000E                     	;# 
   140  000F                     	;# 
   141  0010                     	;# 
   142  0011                     	;# 
   143  0012                     	;# 
   144  0013                     	;# 
   145  0014                     	;# 
   146  0015                     	;# 
   147  0015                     	;# 
   148  0016                     	;# 
   149  0017                     	;# 
   150  0018                     	;# 
   151  0019                     	;# 
   152  001A                     	;# 
   153  001B                     	;# 
   154  001B                     	;# 
   155  001C                     	;# 
   156  001D                     	;# 
   157  001E                     	;# 
   158  001F                     	;# 
   159  0081                     	;# 
   160  0085                     	;# 
   161  0086                     	;# 
   162  0087                     	;# 
   163  0088                     	;# 
   164  0089                     	;# 
   165  008C                     	;# 
   166  008D                     	;# 
   167  008E                     	;# 
   168  0091                     	;# 
   169  0092                     	;# 
   170  0093                     	;# 
   171  0094                     	;# 
   172  0098                     	;# 
   173  0099                     	;# 
   174  009C                     	;# 
   175  009D                     	;# 
   176  009E                     	;# 
   177  009F                     	;# 
   178  010C                     	;# 
   179  010D                     	;# 
   180  010E                     	;# 
   181  010F                     	;# 
   182  018C                     	;# 
   183  018D                     	;# 
   184                           
   185                           	psect	nvBANK0
   186  0064                     __pnvBANK0:	
   187  0064                     _freq:	
   188  0064                     	ds	4
   189  001B                     _CCPR2L	set	27
   190  0015                     _CCPR1L	set	21
   191  0043                     _RD3	set	67
   192  0042                     _RD2	set	66
   193  0041                     _RD1	set	65
   194  0040                     _RD0	set	64
   195  0045                     _RD5	set	69
   196  0046                     _RD6	set	70
   197  0047                     _RD7	set	71
   198  0030                     _RB0	set	48
   199  0031                     _RB1	set	49
   200  0032                     _RB2	set	50
   201  0033                     _RB3	set	51
   202  0091                     _T2CKPS1	set	145
   203  0090                     _T2CKPS0	set	144
   204  00EA                     _CCP2M2	set	234
   205  00EB                     _CCP2M3	set	235
   206  0092                     _TMR2ON	set	146
   207  00BA                     _CCP1M2	set	186
   208  00BB                     _CCP1M3	set	187
   209  00EC                     _CCP2Y	set	236
   210  00ED                     _CCP2X	set	237
   211  00BC                     _CCP1Y	set	188
   212  00BD                     _CCP1X	set	189
   213  0086                     _TRISB	set	134
   214  0088                     _TRISD	set	136
   215  0087                     _TRISC	set	135
   216  0092                     _PR2	set	146
   217  0439                     _TRISC1	set	1081
   218  043A                     _TRISC2	set	1082
   219                           
   220                           ; #config settings
   221  0000                     
   222                           	psect	cinit
   223  07FC                     start_initialization:	
   224  07FC                     __initialization:	
   225  07FC                     end_of_initialization:	
   226                           ;End of C runtime variable initialization code
   227                           
   228  07FC                     __end_of__initialization:	
   229  07FC  0183               	clrf	3
   230  07FD  120A  158A  2C2C   	ljmp	_main	;jump to C main() function
   231                           
   232                           	psect	cstackBANK1
   233  00A0                     __pcstackBANK1:	
   234  00A0                     main@square:	
   235                           
   236                           ; 2 bytes @ 0x0
   237  00A0                     	ds	2
   238  00A2                     main@i:	
   239                           
   240                           ; 2 bytes @ 0x2
   241  00A2                     	ds	2
   242  00A4                     main@i_93:	
   243                           
   244                           ; 2 bytes @ 0x4
   245  00A4                     	ds	2
   246  00A6                     main@Kp:	
   247                           
   248                           ; 3 bytes @ 0x6
   249  00A6                     	ds	3
   250  00A9                     main@Kd:	
   251                           
   252                           ; 3 bytes @ 0x9
   253  00A9                     	ds	3
   254  00AC                     main@position:	
   255                           
   256                           ; 3 bytes @ 0xC
   257  00AC                     	ds	3
   258  00AF                     main@lasterror:	
   259                           
   260                           ; 3 bytes @ 0xF
   261  00AF                     	ds	3
   262  00B2                     _main$496:	
   263                           
   264                           ; 3 bytes @ 0x12
   265  00B2                     	ds	3
   266  00B5                     main@LineOut:	
   267                           
   268                           ; 2 bytes @ 0x15
   269  00B5                     	ds	2
   270  00B7                     _main$497:	
   271                           
   272                           ; 2 bytes @ 0x17
   273  00B7                     	ds	2
   274  00B9                     _main$498:	
   275                           
   276                           ; 2 bytes @ 0x19
   277  00B9                     	ds	2
   278  00BB                     main@LastOut:	
   279                           
   280                           ; 2 bytes @ 0x1B
   281  00BB                     	ds	2
   282  00BD                     main@error:	
   283                           
   284                           ; 3 bytes @ 0x1D
   285  00BD                     	ds	3
   286  00C0                     main@adjustment:	
   287                           
   288                           ; 3 bytes @ 0x20
   289  00C0                     	ds	3
   290  00C3                     main@sum:	
   291                           
   292                           ; 2 bytes @ 0x23
   293  00C3                     	ds	2
   294  00C5                     main@Lspeed:	
   295                           
   296                           ; 3 bytes @ 0x25
   297  00C5                     	ds	3
   298  00C8                     main@Rspeed:	
   299                           
   300                           ; 3 bytes @ 0x28
   301  00C8                     	ds	3
   302  00CB                     main@n:	
   303                           
   304                           ; 2 bytes @ 0x2B
   305  00CB                     	ds	2
   306                           
   307                           	psect	cstackCOMMON
   308  0070                     __pcstackCOMMON:	
   309  0070                     ?___ftge:	
   310  0070                     ?_main:	
   311                           ; 1 bit 
   312                           
   313  0070                     ?___awdiv:	
   314                           ; 1 bytes @ 0x0
   315                           
   316  0070                     ?___ftpack:	
   317                           ; 2 bytes @ 0x0
   318                           
   319  0070                     ?___aldiv:	
   320                           ; 3 bytes @ 0x0
   321                           
   322  0070                     ___awdiv@divisor:	
   323                           ; 4 bytes @ 0x0
   324                           
   325  0070                     ___ftpack@arg:	
   326                           ; 2 bytes @ 0x0
   327                           
   328  0070                     ___ftge@ff1:	
   329                           ; 3 bytes @ 0x0
   330                           
   331  0070                     ___aldiv@divisor:	
   332                           ; 3 bytes @ 0x0
   333                           
   334                           
   335                           ; 4 bytes @ 0x0
   336  0070                     	ds	2
   337  0072                     ___awdiv@dividend:	
   338                           
   339                           ; 2 bytes @ 0x2
   340  0072                     	ds	1
   341  0073                     ___ftpack@exp:	
   342  0073                     ___ftge@ff2:	
   343                           ; 1 bytes @ 0x3
   344                           
   345                           
   346                           ; 3 bytes @ 0x3
   347  0073                     	ds	1
   348  0074                     ??___awdiv:	
   349  0074                     ___ftpack@sign:	
   350                           ; 1 bytes @ 0x4
   351                           
   352  0074                     ___aldiv@dividend:	
   353                           ; 1 bytes @ 0x4
   354                           
   355                           
   356                           ; 4 bytes @ 0x4
   357  0074                     	ds	1
   358  0075                     ??___ftpack:	
   359  0075                     ___awdiv@counter:	
   360                           ; 1 bytes @ 0x5
   361                           
   362                           
   363                           ; 1 bytes @ 0x5
   364  0075                     	ds	1
   365  0076                     ??___ftge:	
   366  0076                     ___awdiv@sign:	
   367                           ; 1 bytes @ 0x6
   368                           
   369                           
   370                           ; 1 bytes @ 0x6
   371  0076                     	ds	1
   372  0077                     ___awdiv@quotient:	
   373                           
   374                           ; 2 bytes @ 0x7
   375  0077                     	ds	1
   376  0078                     ??___aldiv:	
   377  0078                     ?___lwtoft:	
   378                           ; 1 bytes @ 0x8
   379                           
   380  0078                     ___lwtoft@c:	
   381                           ; 3 bytes @ 0x8
   382                           
   383                           
   384                           ; 2 bytes @ 0x8
   385  0078                     	ds	1
   386  0079                     ??_PWM_Max_Duty:	
   387  0079                     ??_PWM1_Init:	
   388                           ; 1 bytes @ 0x9
   389                           
   390  0079                     ??_PWM2_Init:	
   391                           ; 1 bytes @ 0x9
   392                           
   393                           
   394                           ; 1 bytes @ 0x9
   395  0079                     	ds	2
   396  007B                     ??___lwtoft:	
   397                           
   398                           ; 1 bytes @ 0xB
   399  007B                     	ds	1
   400  007C                     ??___ftneg:	
   401                           
   402                           ; 1 bytes @ 0xC
   403  007C                     	ds	1
   404  007D                     ___awtoft@sign:	
   405                           
   406                           ; 1 bytes @ 0xD
   407  007D                     	ds	1
   408                           
   409                           	psect	cstackBANK0
   410  0020                     __pcstackBANK0:	
   411  0020                     ?___ftdiv:	
   412  0020                     ___aldiv@counter:	
   413                           ; 3 bytes @ 0x0
   414                           
   415  0020                     ___ftdiv@f2:	
   416                           ; 1 bytes @ 0x0
   417                           
   418                           
   419                           ; 3 bytes @ 0x0
   420  0020                     	ds	1
   421  0021                     ___aldiv@sign:	
   422                           
   423                           ; 1 bytes @ 0x1
   424  0021                     	ds	1
   425  0022                     ___aldiv@quotient:	
   426                           
   427                           ; 4 bytes @ 0x2
   428  0022                     	ds	1
   429  0023                     ___ftdiv@f1:	
   430                           
   431                           ; 3 bytes @ 0x3
   432  0023                     	ds	3
   433  0026                     ??___ftdiv:	
   434  0026                     ?_PWM_Max_Duty:	
   435                           ; 1 bytes @ 0x6
   436                           
   437  0026                     ?_PWM1_Init:	
   438                           ; 2 bytes @ 0x6
   439                           
   440  0026                     ?_PWM2_Init:	
   441                           ; 2 bytes @ 0x6
   442                           
   443  0026                     PWM1_Init@fre:	
   444                           ; 2 bytes @ 0x6
   445                           
   446  0026                     PWM2_Init@fre:	
   447                           ; 4 bytes @ 0x6
   448                           
   449                           
   450                           ; 4 bytes @ 0x6
   451  0026                     	ds	2
   452  0028                     ?___awtoft:	
   453  0028                     ___awtoft@c:	
   454                           ; 3 bytes @ 0x8
   455                           
   456                           
   457                           ; 2 bytes @ 0x8
   458  0028                     	ds	2
   459  002A                     ___ftdiv@cntr:	
   460                           
   461                           ; 1 bytes @ 0xA
   462  002A                     	ds	1
   463  002B                     ??___awtoft:	
   464  002B                     ___ftdiv@f3:	
   465                           ; 1 bytes @ 0xB
   466                           
   467                           
   468                           ; 3 bytes @ 0xB
   469  002B                     	ds	3
   470  002E                     ___ftdiv@exp:	
   471                           
   472                           ; 1 bytes @ 0xE
   473  002E                     	ds	1
   474  002F                     ___ftdiv@sign:	
   475                           
   476                           ; 1 bytes @ 0xF
   477  002F                     	ds	1
   478  0030                     ?___ftneg:	
   479  0030                     ___ftneg@f1:	
   480                           ; 3 bytes @ 0x10
   481                           
   482                           
   483                           ; 3 bytes @ 0x10
   484  0030                     	ds	3
   485  0033                     ?___ftadd:	
   486  0033                     ___ftadd@f1:	
   487                           ; 3 bytes @ 0x13
   488                           
   489                           
   490                           ; 3 bytes @ 0x13
   491  0033                     	ds	3
   492  0036                     ___ftadd@f2:	
   493                           
   494                           ; 3 bytes @ 0x16
   495  0036                     	ds	3
   496  0039                     ??___ftadd:	
   497                           
   498                           ; 1 bytes @ 0x19
   499  0039                     	ds	4
   500  003D                     ___ftadd@sign:	
   501                           
   502                           ; 1 bytes @ 0x1D
   503  003D                     	ds	1
   504  003E                     ___ftadd@exp2:	
   505                           
   506                           ; 1 bytes @ 0x1E
   507  003E                     	ds	1
   508  003F                     ___ftadd@exp1:	
   509                           
   510                           ; 1 bytes @ 0x1F
   511  003F                     	ds	1
   512  0040                     ?___ftmul:	
   513  0040                     ___ftmul@f1:	
   514                           ; 3 bytes @ 0x20
   515                           
   516                           
   517                           ; 3 bytes @ 0x20
   518  0040                     	ds	3
   519  0043                     ___ftmul@f2:	
   520                           
   521                           ; 3 bytes @ 0x23
   522  0043                     	ds	3
   523  0046                     ??___ftmul:	
   524                           
   525                           ; 1 bytes @ 0x26
   526  0046                     	ds	4
   527  004A                     ___ftmul@exp:	
   528                           
   529                           ; 1 bytes @ 0x2A
   530  004A                     	ds	1
   531  004B                     ___ftmul@f3_as_product:	
   532                           
   533                           ; 3 bytes @ 0x2B
   534  004B                     	ds	3
   535  004E                     ___ftmul@cntr:	
   536                           
   537                           ; 1 bytes @ 0x2E
   538  004E                     	ds	1
   539  004F                     ___ftmul@sign:	
   540                           
   541                           ; 1 bytes @ 0x2F
   542  004F                     	ds	1
   543  0050                     ?___fttol:	
   544  0050                     ___fttol@f1:	
   545                           ; 4 bytes @ 0x30
   546                           
   547                           
   548                           ; 3 bytes @ 0x30
   549  0050                     	ds	4
   550  0054                     ??___fttol:	
   551                           
   552                           ; 1 bytes @ 0x34
   553  0054                     	ds	4
   554  0058                     ___fttol@sign1:	
   555                           
   556                           ; 1 bytes @ 0x38
   557  0058                     	ds	1
   558  0059                     ___fttol@lval:	
   559                           
   560                           ; 4 bytes @ 0x39
   561  0059                     	ds	4
   562  005D                     ___fttol@exp1:	
   563                           
   564                           ; 1 bytes @ 0x3D
   565  005D                     	ds	1
   566  005E                     ?_PWM1_Duty:	
   567  005E                     ?_PWM2_Duty:	
   568                           ; 2 bytes @ 0x3E
   569                           
   570  005E                     PWM1_Duty@duty:	
   571                           ; 2 bytes @ 0x3E
   572                           
   573  005E                     PWM2_Duty@duty:	
   574                           ; 2 bytes @ 0x3E
   575                           
   576                           
   577                           ; 2 bytes @ 0x3E
   578  005E                     	ds	2
   579  0060                     ??_PWM1_Duty:	
   580  0060                     ??_PWM2_Duty:	
   581                           ; 1 bytes @ 0x40
   582                           
   583                           
   584                           ; 1 bytes @ 0x40
   585  0060                     	ds	2
   586  0062                     ??_main:	
   587                           
   588                           ; 1 bytes @ 0x42
   589  0062                     	ds	2
   590                           
   591                           	psect	maintext
   592  0C2C                     __pmaintext:	
   593 ;;
   594 ;;Main: autosize = 0, tempsize = 2, incstack = 0, save=0
   595 ;;
   596 ;; *************** function _main *****************
   597 ;; Defined at:
   598 ;;		line 109 in file "maincode.c"
   599 ;; Parameters:    Size  Location     Type
   600 ;;		None
   601 ;; Auto vars:     Size  Location     Type
   602 ;;  i               2    4[BANK1 ] int 
   603 ;;  i               2    2[BANK1 ] int 
   604 ;;  Rspeed          3   40[BANK1 ] float 
   605 ;;  Lspeed          3   37[BANK1 ] float 
   606 ;;  adjustment      3   32[BANK1 ] float 
   607 ;;  error           3   29[BANK1 ] float 
   608 ;;  lasterror       3   15[BANK1 ] float 
   609 ;;  position        3   12[BANK1 ] float 
   610 ;;  Kd              3    9[BANK1 ] float 
   611 ;;  Kp              3    6[BANK1 ] float 
   612 ;;  n               2   43[BANK1 ] int 
   613 ;;  sum             2   35[BANK1 ] int 
   614 ;;  LastOut         2   27[BANK1 ] int 
   615 ;;  LineOut         2   21[BANK1 ] int 
   616 ;;  square          2    0[BANK1 ] int 
   617 ;; Return value:  Size  Location     Type
   618 ;;                  1    wreg      void 
   619 ;; Registers used:
   620 ;;		wreg, status,2, status,0, btemp+1, pclath, cstack
   621 ;; Tracked objects:
   622 ;;		On entry : B00/0
   623 ;;		On exit  : 0/0
   624 ;;		Unchanged: 0/0
   625 ;; Data sizes:     COMMON   BANK0   BANK1   BANK3   BANK2
   626 ;;      Params:         0       0       0       0       0
   627 ;;      Locals:         0       0      45       0       0
   628 ;;      Temps:          0       2       0       0       0
   629 ;;      Totals:         0       2      45       0       0
   630 ;;Total ram usage:       47 bytes
   631 ;; Hardware stack levels required when called:    3
   632 ;; This function calls:
   633 ;;		_PWM1_Duty
   634 ;;		_PWM1_Init
   635 ;;		_PWM2_Duty
   636 ;;		_PWM2_Init
   637 ;;		___awdiv
   638 ;;		___awtoft
   639 ;;		___ftadd
   640 ;;		___ftdiv
   641 ;;		___ftge
   642 ;;		___ftmul
   643 ;;		___ftneg
   644 ;;		___fttol
   645 ;; This function is called by:
   646 ;;		Startup code after reset
   647 ;; This function uses a non-reentrant model
   648 ;;
   649                           
   650                           
   651                           ;psect for function _main
   652  0C2C                     _main:	
   653                           
   654                           ;maincode.c: 111: TRISC=0;
   655                           
   656                           ;incstack = 0
   657                           ; Regs used in _main: [wreg+status,2+status,0+btemp+1+pclath+cstack]
   658  0C2C  1683               	bsf	3,5	;RP0=1, select bank1
   659  0C2D  1303               	bcf	3,6	;RP1=0, select bank1
   660  0C2E  0187               	clrf	7	;volatile
   661                           
   662                           ;maincode.c: 112: TRISD=0b11110000;
   663  0C2F  30F0               	movlw	240
   664  0C30  0088               	movwf	8	;volatile
   665                           
   666                           ;maincode.c: 113: TRISB=0b00001111;
   667  0C31  300F               	movlw	15
   668  0C32  0086               	movwf	6	;volatile
   669                           
   670                           ;maincode.c: 114: PWM1_Init(5000);
   671  0C33  3000               	movlw	0
   672  0C34  1283               	bcf	3,5	;RP0=0, select bank0
   673  0C35  1303               	bcf	3,6	;RP1=0, select bank0
   674  0C36  00A9               	movwf	PWM1_Init@fre+3
   675  0C37  3000               	movlw	0
   676  0C38  00A8               	movwf	PWM1_Init@fre+2
   677  0C39  3013               	movlw	19
   678  0C3A  00A7               	movwf	PWM1_Init@fre+1
   679  0C3B  3088               	movlw	136
   680  0C3C  00A6               	movwf	PWM1_Init@fre
   681  0C3D  120A  158A  2102  120A  158A  	fcall	_PWM1_Init
   682                           
   683                           ;maincode.c: 115: PWM2_Init(5000);
   684  0C42  3000               	movlw	0
   685  0C43  1283               	bcf	3,5	;RP0=0, select bank0
   686  0C44  1303               	bcf	3,6	;RP1=0, select bank0
   687  0C45  00A9               	movwf	PWM2_Init@fre+3
   688  0C46  3000               	movlw	0
   689  0C47  00A8               	movwf	PWM2_Init@fre+2
   690  0C48  3013               	movlw	19
   691  0C49  00A7               	movwf	PWM2_Init@fre+1
   692  0C4A  3088               	movlw	136
   693  0C4B  00A6               	movwf	PWM2_Init@fre
   694  0C4C  120A  158A  2141  120A  158A  	fcall	_PWM2_Init
   695                           
   696                           ;maincode.c: 117: float position, error, lasterror, adjustment;
   697                           ;maincode.c: 118: float Kp=140;
   698  0C51  3000               	movlw	0
   699  0C52  1683               	bsf	3,5	;RP0=1, select bank1
   700  0C53  1303               	bcf	3,6	;RP1=0, select bank1
   701  0C54  00A6               	movwf	main@Kp^(0+128)
   702  0C55  300C               	movlw	12
   703  0C56  00A7               	movwf	(main@Kp+1)^(0+128)
   704  0C57  3043               	movlw	67
   705  0C58  00A8               	movwf	(main@Kp+2)^(0+128)
   706                           
   707                           ;maincode.c: 119: float Kd=350;
   708  0C59  3000               	movlw	0
   709  0C5A  00A9               	movwf	main@Kd^(0+128)
   710  0C5B  30AF               	movlw	175
   711  0C5C  00AA               	movwf	(main@Kd+1)^(0+128)
   712  0C5D  3043               	movlw	67
   713  0C5E  00AB               	movwf	(main@Kd+2)^(0+128)
   714                           
   715                           ;maincode.c: 120: float Lspeed, Rspeed;
   716                           ;maincode.c: 121: int n=0;
   717  0C5F  01CB               	clrf	main@n^(0+128)
   718  0C60  01CC               	clrf	(main@n+1)^(0+128)
   719                           
   720                           ;maincode.c: 122: int sum=0;
   721  0C61  01C3               	clrf	main@sum^(0+128)
   722  0C62  01C4               	clrf	(main@sum+1)^(0+128)
   723                           
   724                           ;maincode.c: 123: int LineOut=1;
   725  0C63  3001               	movlw	1
   726  0C64  00B5               	movwf	main@LineOut^(0+128)
   727  0C65  3000               	movlw	0
   728  0C66  00B6               	movwf	(main@LineOut^(0+128)+1)
   729  0C67                     l98:	
   730                           ;maincode.c: 124: int LastOut;
   731                           ;maincode.c: 125: int square;
   732                           ;maincode.c: 126: while(1);{
   733                           
   734  0C67  2C67               	goto	l98
   735  0C68                     l1920:	
   736                           ;maincode.c: 207: }
   737                           ;maincode.c: 209: while(LineOut==0){
   738                           
   739                           ;maincode.c: 206: Lspeed=-Lspeed;
   740                           
   741                           ;maincode.c: 205: RD3=1;
   742                           
   743                           ;maincode.c: 204: RD2=0;
   744                           
   745                           ;maincode.c: 202: }
   746                           ;maincode.c: 203: if(Lspeed<0){
   747                           
   748                           ;maincode.c: 201: Rspeed=-Rspeed;
   749                           
   750                           ;maincode.c: 200: RD1=1;
   751                           
   752                           ;maincode.c: 199: RD0=0;
   753                           
   754                           ;maincode.c: 197: }
   755                           ;maincode.c: 198: if(Rspeed<0){
   756                           
   757                           ;maincode.c: 196: Lspeed=1023;
   758                           
   759                           ;maincode.c: 194: }
   760                           ;maincode.c: 195: if(Lspeed>1023){
   761                           
   762                           ;maincode.c: 193: Rspeed=1023;
   763                           
   764                           ;maincode.c: 187: }
   765                           ;maincode.c: 192: if(Rspeed>1023){
   766                           
   767                           ;maincode.c: 186: Lspeed=Lspeed-adjustment/6;
   768                           
   769                           ;maincode.c: 184: else{
   770                           ;maincode.c: 185: Rspeed=Rspeed+adjustment;
   771                           
   772                           ;maincode.c: 183: }
   773                           
   774                           ;maincode.c: 182: Rspeed=Rspeed+adjustment/6;
   775                           
   776                           ;maincode.c: 181: Lspeed=Lspeed-adjustment;
   777                           
   778                           ;maincode.c: 180: if(adjustment>0){
   779                           
   780                           ;maincode.c: 179: lasterror=error;
   781                           
   782                           ;maincode.c: 177: }
   783                           ;maincode.c: 178: adjustment = Kp*error + Kd*(error - lasterror);
   784                           
   785                           ;maincode.c: 177: }
   786                           ;maincode.c: 178: adjustment = Kp*error + Kd*(error - lasterror);
   787                           
   788                           ;maincode.c: 176: error=0-position;
   789                           
   790                           ;maincode.c: 175: position=sum/n;
   791                           
   792                           ;maincode.c: 173: }
   793                           ;maincode.c: 174: if(n!=0){
   794                           
   795                           ;maincode.c: 172: LastOut=1;
   796                           
   797                           ;maincode.c: 171: sum=sum+9;
   798                           
   799                           ;maincode.c: 170: LineOut=1;
   800                           
   801                           ;maincode.c: 169: n=n+1;
   802                           
   803                           ;maincode.c: 167: }
   804                           ;maincode.c: 168: if(RD5==0){
   805                           
   806                           ;maincode.c: 166: LastOut=1;
   807                           
   808                           ;maincode.c: 165: sum=sum+5;
   809                           
   810                           ;maincode.c: 164: LineOut=1;
   811                           
   812                           ;maincode.c: 163: n=n+1;
   813                           
   814                           ;maincode.c: 161: }
   815                           ;maincode.c: 162: if(RD6==0){
   816                           
   817                           ;maincode.c: 160: LastOut=0;
   818                           
   819                           ;maincode.c: 159: sum=sum+3;
   820                           
   821                           ;maincode.c: 158: LineOut=1;
   822                           
   823                           ;maincode.c: 157: n=n+1;
   824                           
   825                           ;maincode.c: 155: }
   826                           ;maincode.c: 156: if(RD7==0){
   827                           
   828                           ;maincode.c: 154: LastOut=0;
   829                           
   830                           ;maincode.c: 152: LineOut=1;
   831                           
   832                           ;maincode.c: 151: n=n+1;
   833                           
   834                           ;maincode.c: 149: }
   835                           ;maincode.c: 150: if(RB0==0){
   836                           
   837                           ;maincode.c: 148: LastOut=0;
   838                           
   839                           ;maincode.c: 147: sum=sum-3;
   840                           
   841                           ;maincode.c: 146: LineOut=1;
   842                           
   843                           ;maincode.c: 145: n=n+1;
   844                           
   845                           ;maincode.c: 143: }
   846                           ;maincode.c: 144: if(RB1==0){
   847                           
   848                           ;maincode.c: 142: LastOut=-1;
   849                           
   850                           ;maincode.c: 141: sum=sum-5;
   851                           
   852                           ;maincode.c: 140: LineOut=1;
   853                           
   854                           ;maincode.c: 139: n=n+1;
   855                           
   856                           ;maincode.c: 137: }
   857                           ;maincode.c: 138: if(RB2==0){
   858                           
   859                           ;maincode.c: 136: LastOut=-1;
   860                           
   861                           ;maincode.c: 135: sum=sum-9;
   862                           
   863                           ;maincode.c: 134: LineOut=1;
   864                           
   865                           ;maincode.c: 133: n=n+1;
   866                           
   867                           ;maincode.c: 132: if(RB3==0){
   868                           
   869                           ;maincode.c: 131: sum=0;
   870                           
   871                           ;maincode.c: 130: n=0;
   872                           
   873                           ;maincode.c: 129: Rspeed=720;
   874                           
   875                           ;maincode.c: 128: Lspeed=720;
   876                           
   877                           ;maincode.c: 127: LineOut=0;
   878                           
   879  0C68  1683               	bsf	3,5	;RP0=1, select bank1
   880  0C69  1303               	bcf	3,6	;RP1=0, select bank1
   881  0C6A  0835               	movf	main@LineOut^(0+128),w
   882  0C6B  0436               	iorwf	(main@LineOut+1)^(0+128),w
   883  0C6C  1D03               	btfss	3,2
   884  0C6D  2CBF               	goto	L4
   885                           
   886                           ;maincode.c: 210: if(LastOut==(-1))
   887  0C6E  0A3B               	incf	main@LastOut^(0+128),w
   888  0C6F  1D03               	skipz
   889  0C70  2C86               	goto	l1890
   890  0C71  0A3C               	incf	(main@LastOut+1)^(0+128),w
   891  0C72  1D03               	btfss	3,2
   892  0C73  2C86               	goto	l1890
   893                           
   894                           ;maincode.c: 211: {
   895                           ;maincode.c: 212: RD2=0;
   896  0C74  1283               	bcf	3,5	;RP0=0, select bank0
   897  0C75  1303               	bcf	3,6	;RP1=0, select bank0
   898  0C76  1108               	bcf	8,2	;volatile
   899                           
   900                           ;maincode.c: 213: RD3=1;
   901  0C77  1588               	bsf	8,3	;volatile
   902                           
   903                           ;maincode.c: 214: Lspeed=500;
   904  0C78  3000               	movlw	0
   905  0C79  1683               	bsf	3,5	;RP0=1, select bank1
   906  0C7A  1303               	bcf	3,6	;RP1=0, select bank1
   907  0C7B  00C5               	movwf	main@Lspeed^(0+128)
   908  0C7C  30FA               	movlw	250
   909  0C7D  00C6               	movwf	(main@Lspeed+1)^(0+128)
   910  0C7E  3043               	movlw	67
   911  0C7F  00C7               	movwf	(main@Lspeed+2)^(0+128)
   912                           
   913                           ;maincode.c: 215: Rspeed=750;
   914  0C80  3080               	movlw	128
   915  0C81  00C8               	movwf	main@Rspeed^(0+128)
   916  0C82  303B               	movlw	59
   917  0C83  00C9               	movwf	(main@Rspeed+1)^(0+128)
   918  0C84  3044               	movlw	68
   919  0C85  00CA               	movwf	(main@Rspeed+2)^(0+128)
   920  0C86                     l1890:	
   921                           
   922                           ;maincode.c: 216: }
   923                           ;maincode.c: 217: if(LastOut==1){
   924  0C86  033B               	decf	main@LastOut^(0+128),w
   925  0C87  043C               	iorwf	(main@LastOut+1)^(0+128),w
   926  0C88  1D03               	btfss	3,2
   927  0C89  2C9C               	goto	l1896
   928                           
   929                           ;maincode.c: 218: RD0=0;
   930  0C8A  1283               	bcf	3,5	;RP0=0, select bank0
   931  0C8B  1303               	bcf	3,6	;RP1=0, select bank0
   932  0C8C  1008               	bcf	8,0	;volatile
   933                           
   934                           ;maincode.c: 219: RD1=1;
   935  0C8D  1488               	bsf	8,1	;volatile
   936                           
   937                           ;maincode.c: 220: Lspeed=750;
   938  0C8E  3080               	movlw	128
   939  0C8F  1683               	bsf	3,5	;RP0=1, select bank1
   940  0C90  1303               	bcf	3,6	;RP1=0, select bank1
   941  0C91  00C5               	movwf	main@Lspeed^(0+128)
   942  0C92  303B               	movlw	59
   943  0C93  00C6               	movwf	(main@Lspeed+1)^(0+128)
   944  0C94  3044               	movlw	68
   945  0C95  00C7               	movwf	(main@Lspeed+2)^(0+128)
   946                           
   947                           ;maincode.c: 221: Rspeed=500;
   948  0C96  3000               	movlw	0
   949  0C97  00C8               	movwf	main@Rspeed^(0+128)
   950  0C98  30FA               	movlw	250
   951  0C99  00C9               	movwf	(main@Rspeed+1)^(0+128)
   952  0C9A  3043               	movlw	67
   953  0C9B  00CA               	movwf	(main@Rspeed+2)^(0+128)
   954  0C9C                     l1896:	
   955                           
   956                           ;maincode.c: 222: }
   957                           ;maincode.c: 223: if(LastOut==0){
   958  0C9C  083B               	movf	main@LastOut^(0+128),w
   959  0C9D  043C               	iorwf	(main@LastOut+1)^(0+128),w
   960  0C9E  1D03               	btfss	3,2
   961  0C9F  2CA6               	goto	l1900
   962                           
   963                           ;maincode.c: 224: RD0=0;
   964  0CA0  1283               	bcf	3,5	;RP0=0, select bank0
   965  0CA1  1303               	bcf	3,6	;RP1=0, select bank0
   966  0CA2  1008               	bcf	8,0	;volatile
   967                           
   968                           ;maincode.c: 225: RD1=0;
   969  0CA3  1088               	bcf	8,1	;volatile
   970                           
   971                           ;maincode.c: 226: RD2=0;
   972  0CA4  1108               	bcf	8,2	;volatile
   973                           
   974                           ;maincode.c: 227: RD3=0;
   975  0CA5  1188               	bcf	8,3	;volatile
   976  0CA6                     l1900:	
   977                           
   978                           ;maincode.c: 228: }
   979                           ;maincode.c: 229: PWM1_Duty(Lspeed);
   980  0CA6  1683               	bsf	3,5	;RP0=1, select bank1
   981  0CA7  1303               	bcf	3,6	;RP1=0, select bank1
   982  0CA8  0845               	movf	main@Lspeed^(0+128),w
   983  0CA9  1283               	bcf	3,5	;RP0=0, select bank0
   984  0CAA  1303               	bcf	3,6	;RP1=0, select bank0
   985  0CAB  00D0               	movwf	___fttol@f1
   986  0CAC  1683               	bsf	3,5	;RP0=1, select bank1
   987  0CAD  1303               	bcf	3,6	;RP1=0, select bank1
   988  0CAE  0846               	movf	(main@Lspeed+1)^(0+128),w
   989  0CAF  1283               	bcf	3,5	;RP0=0, select bank0
   990  0CB0  1303               	bcf	3,6	;RP1=0, select bank0
   991  0CB1  00D1               	movwf	___fttol@f1+1
   992  0CB2  1683               	bsf	3,5	;RP0=1, select bank1
   993  0CB3  1303               	bcf	3,6	;RP1=0, select bank1
   994  0CB4  0847               	movf	(main@Lspeed+2)^(0+128),w
   995  0CB5  1283               	bcf	3,5	;RP0=0, select bank0
   996  0CB6  1303               	bcf	3,6	;RP1=0, select bank0
   997  0CB7  00D2               	movwf	___fttol@f1+2
   998  0CB8  120A  158A  230F   	fcall	___fttol
   999  0CBB  1283               	bcf	3,5	;RP0=0, select bank0
  1000  0CBC  120A  158A  2D7A   	ljmp	L2
  1001  0CBF                     L4:	
  1002  0CBF                     L3:	
  1003  0CBF  120A  158A  2DE7   	ljmp	l123
  1004                           
  1005                           	psect	text1
  1006  0009                     __ptext1:	
  1007 ;; *************** function ___ftneg *****************
  1008 ;; Defined at:
  1009 ;;		line 15 in file "C:\Program Files (x86)\Microchip\xc8\v1.45\sources\common\ftneg.c"
  1010 ;; Parameters:    Size  Location     Type
  1011 ;;  f1              3   16[BANK0 ] float 
  1012 ;; Auto vars:     Size  Location     Type
  1013 ;;		None
  1014 ;; Return value:  Size  Location     Type
  1015 ;;                  3   16[BANK0 ] float 
  1016 ;; Registers used:
  1017 ;;		wreg
  1018 ;; Tracked objects:
  1019 ;;		On entry : 0/0
  1020 ;;		On exit  : 0/0
  1021 ;;		Unchanged: 0/0
  1022 ;; Data sizes:     COMMON   BANK0   BANK1   BANK3   BANK2
  1023 ;;      Params:         0       3       0       0       0
  1024 ;;      Locals:         0       0       0       0       0
  1025 ;;      Temps:          0       0       0       0       0
  1026 ;;      Totals:         0       3       0       0       0
  1027 ;;Total ram usage:        3 bytes
  1028 ;; Hardware stack levels used:    1
  1029 ;; This function calls:
  1030 ;;		Nothing
  1031 ;; This function is called by:
  1032 ;;		_main
  1033 ;; This function uses a non-reentrant model
  1034 ;;
  1035                           
  1036                           
  1037                           ;psect for function ___ftneg
  1038  0009                     ___ftneg:	
  1039                           
  1040                           ;incstack = 0
  1041                           ; Regs used in ___ftneg: [wreg]
  1042  0009  1283               	bcf	3,5	;RP0=0, select bank0
  1043  000A  1303               	bcf	3,6	;RP1=0, select bank0
  1044  000B  0832               	movf	___ftneg@f1+2,w
  1045  000C  0431               	iorwf	___ftneg@f1+1,w
  1046  000D  0430               	iorwf	___ftneg@f1,w
  1047  000E  1903               	skipnz
  1048  000F  0008               	return
  1049  0010  3080               	movlw	128
  1050  0011  06B2               	xorwf	___ftneg@f1+2,f
  1051  0012  0008               	return
  1052  0013                     __end_of___ftneg:	
  1053                           
  1054                           	psect	text2
  1055  09D9                     __ptext2:	
  1056 ;; *************** function ___ftge *****************
  1057 ;; Defined at:
  1058 ;;		line 4 in file "C:\Program Files (x86)\Microchip\xc8\v1.45\sources\common\ftge.c"
  1059 ;; Parameters:    Size  Location     Type
  1060 ;;  ff1             3    0[COMMON] float 
  1061 ;;  ff2             3    3[COMMON] float 
  1062 ;; Auto vars:     Size  Location     Type
  1063 ;;		None
  1064 ;; Return value:  Size  Location     Type
  1065 ;;		None               void
  1066 ;; Registers used:
  1067 ;;		wreg, status,2, status,0
  1068 ;; Tracked objects:
  1069 ;;		On entry : 0/0
  1070 ;;		On exit  : 0/0
  1071 ;;		Unchanged: 0/0
  1072 ;; Data sizes:     COMMON   BANK0   BANK1   BANK3   BANK2
  1073 ;;      Params:         6       0       0       0       0
  1074 ;;      Locals:         0       0       0       0       0
  1075 ;;      Temps:          6       0       0       0       0
  1076 ;;      Totals:        12       0       0       0       0
  1077 ;;Total ram usage:       12 bytes
  1078 ;; Hardware stack levels used:    1
  1079 ;; This function calls:
  1080 ;;		Nothing
  1081 ;; This function is called by:
  1082 ;;		_main
  1083 ;; This function uses a non-reentrant model
  1084 ;;
  1085                           
  1086                           
  1087                           ;psect for function ___ftge
  1088  09D9                     ___ftge:	
  1089                           
  1090                           ;incstack = 0
  1091                           ; Regs used in ___ftge: [wreg+status,2+status,0]
  1092  09D9  1FF2               	btfss	___ftge@ff1+2,7
  1093  09DA  2A00               	goto	l1742
  1094  09DB  3000               	movlw	0
  1095  09DC  00F6               	movwf	??___ftge
  1096  09DD  3000               	movlw	0
  1097  09DE  00F7               	movwf	??___ftge+1
  1098  09DF  3080               	movlw	128
  1099  09E0  00F8               	movwf	??___ftge+2
  1100  09E1  0970               	comf	___ftge@ff1,w
  1101  09E2  00F9               	movwf	??___ftge+3
  1102  09E3  0971               	comf	___ftge@ff1+1,w
  1103  09E4  00FA               	movwf	??___ftge+4
  1104  09E5  0972               	comf	___ftge@ff1+2,w
  1105  09E6  00FB               	movwf	??___ftge+5
  1106  09E7  0AF9               	incf	??___ftge+3,f
  1107  09E8  1903               	skipnz
  1108  09E9  0AFA               	incf	??___ftge+4,f
  1109  09EA  1903               	skipnz
  1110  09EB  0AFB               	incf	??___ftge+5,f
  1111  09EC  0879               	movf	??___ftge+3,w
  1112  09ED  07F6               	addwf	??___ftge,f
  1113  09EE  087A               	movf	??___ftge+4,w
  1114  09EF  1803               	skipnc
  1115  09F0  0F7A               	incfsz	??___ftge+4,w
  1116  09F1  29F3               	goto	u2541
  1117  09F2  29F4               	goto	u2542
  1118  09F3                     u2541:	
  1119  09F3  07F7               	addwf	??___ftge+1,f
  1120  09F4                     u2542:	
  1121  09F4  087B               	movf	??___ftge+5,w
  1122  09F5  1803               	skipnc
  1123  09F6  0F7B               	incfsz	??___ftge+5,w
  1124  09F7  29F9               	goto	u2543
  1125  09F8  29FA               	goto	u2544
  1126  09F9                     u2543:	
  1127  09F9  07F8               	addwf	??___ftge+2,f
  1128  09FA                     u2544:	
  1129  09FA  0876               	movf	??___ftge,w
  1130  09FB  00F0               	movwf	___ftge@ff1
  1131  09FC  0877               	movf	??___ftge+1,w
  1132  09FD  00F1               	movwf	___ftge@ff1+1
  1133  09FE  0878               	movf	??___ftge+2,w
  1134  09FF  00F2               	movwf	___ftge@ff1+2
  1135  0A00                     l1742:	
  1136  0A00  1FF5               	btfss	___ftge@ff2+2,7
  1137  0A01  2A27               	goto	l1746
  1138  0A02  3000               	movlw	0
  1139  0A03  00F6               	movwf	??___ftge
  1140  0A04  3000               	movlw	0
  1141  0A05  00F7               	movwf	??___ftge+1
  1142  0A06  3080               	movlw	128
  1143  0A07  00F8               	movwf	??___ftge+2
  1144  0A08  0973               	comf	___ftge@ff2,w
  1145  0A09  00F9               	movwf	??___ftge+3
  1146  0A0A  0974               	comf	___ftge@ff2+1,w
  1147  0A0B  00FA               	movwf	??___ftge+4
  1148  0A0C  0975               	comf	___ftge@ff2+2,w
  1149  0A0D  00FB               	movwf	??___ftge+5
  1150  0A0E  0AF9               	incf	??___ftge+3,f
  1151  0A0F  1903               	skipnz
  1152  0A10  0AFA               	incf	??___ftge+4,f
  1153  0A11  1903               	skipnz
  1154  0A12  0AFB               	incf	??___ftge+5,f
  1155  0A13  0879               	movf	??___ftge+3,w
  1156  0A14  07F6               	addwf	??___ftge,f
  1157  0A15  087A               	movf	??___ftge+4,w
  1158  0A16  1803               	skipnc
  1159  0A17  0F7A               	incfsz	??___ftge+4,w
  1160  0A18  2A1A               	goto	u2561
  1161  0A19  2A1B               	goto	u2562
  1162  0A1A                     u2561:	
  1163  0A1A  07F7               	addwf	??___ftge+1,f
  1164  0A1B                     u2562:	
  1165  0A1B  087B               	movf	??___ftge+5,w
  1166  0A1C  1803               	skipnc
  1167  0A1D  0F7B               	incfsz	??___ftge+5,w
  1168  0A1E  2A20               	goto	u2563
  1169  0A1F  2A21               	goto	u2564
  1170  0A20                     u2563:	
  1171  0A20  07F8               	addwf	??___ftge+2,f
  1172  0A21                     u2564:	
  1173  0A21  0876               	movf	??___ftge,w
  1174  0A22  00F3               	movwf	___ftge@ff2
  1175  0A23  0877               	movf	??___ftge+1,w
  1176  0A24  00F4               	movwf	___ftge@ff2+1
  1177  0A25  0878               	movf	??___ftge+2,w
  1178  0A26  00F5               	movwf	___ftge@ff2+2
  1179  0A27                     l1746:	
  1180  0A27  3080               	movlw	128
  1181  0A28  06F2               	xorwf	___ftge@ff1+2,f
  1182  0A29  3080               	movlw	128
  1183  0A2A  06F5               	xorwf	___ftge@ff2+2,f
  1184  0A2B  0875               	movf	___ftge@ff2+2,w
  1185  0A2C  0272               	subwf	___ftge@ff1+2,w
  1186  0A2D  1D03               	skipz
  1187  0A2E  0008               	return
  1188  0A2F  0874               	movf	___ftge@ff2+1,w
  1189  0A30  0271               	subwf	___ftge@ff1+1,w
  1190  0A31  1D03               	skipz
  1191  0A32  0008               	return
  1192  0A33  0873               	movf	___ftge@ff2,w
  1193  0A34  0270               	subwf	___ftge@ff1,w
  1194  0A35  0008               	return
  1195  0A36                     __end_of___ftge:	
  1196                           
  1197                           	psect	text3
  1198  0153                     __ptext3:	
  1199 ;; *************** function ___ftadd *****************
  1200 ;; Defined at:
  1201 ;;		line 86 in file "C:\Program Files (x86)\Microchip\xc8\v1.45\sources\common\ftadd.c"
  1202 ;; Parameters:    Size  Location     Type
  1203 ;;  f1              3   19[BANK0 ] float 
  1204 ;;  f2              3   22[BANK0 ] float 
  1205 ;; Auto vars:     Size  Location     Type
  1206 ;;  exp1            1   31[BANK0 ] unsigned char 
  1207 ;;  exp2            1   30[BANK0 ] unsigned char 
  1208 ;;  sign            1   29[BANK0 ] unsigned char 
  1209 ;; Return value:  Size  Location     Type
  1210 ;;                  3   19[BANK0 ] float 
  1211 ;; Registers used:
  1212 ;;		wreg, status,2, status,0, pclath, cstack
  1213 ;; Tracked objects:
  1214 ;;		On entry : 0/0
  1215 ;;		On exit  : 0/0
  1216 ;;		Unchanged: 0/0
  1217 ;; Data sizes:     COMMON   BANK0   BANK1   BANK3   BANK2
  1218 ;;      Params:         0       6       0       0       0
  1219 ;;      Locals:         0       3       0       0       0
  1220 ;;      Temps:          0       4       0       0       0
  1221 ;;      Totals:         0      13       0       0       0
  1222 ;;Total ram usage:       13 bytes
  1223 ;; Hardware stack levels used:    1
  1224 ;; Hardware stack levels required when called:    1
  1225 ;; This function calls:
  1226 ;;		___ftpack
  1227 ;; This function is called by:
  1228 ;;		_main
  1229 ;; This function uses a non-reentrant model
  1230 ;;
  1231                           
  1232                           
  1233                           ;psect for function ___ftadd
  1234  0153                     ___ftadd:	
  1235                           
  1236                           ;incstack = 0
  1237                           ; Regs used in ___ftadd: [wreg+status,2+status,0+pclath+cstack]
  1238  0153  1283               	bcf	3,5	;RP0=0, select bank0
  1239  0154  1303               	bcf	3,6	;RP1=0, select bank0
  1240  0155  0833               	movf	___ftadd@f1,w
  1241  0156  00B9               	movwf	??___ftadd
  1242  0157  0834               	movf	___ftadd@f1+1,w
  1243  0158  00BA               	movwf	??___ftadd+1
  1244  0159  0835               	movf	___ftadd@f1+2,w
  1245  015A  00BB               	movwf	??___ftadd+2
  1246  015B  1003               	clrc
  1247  015C  0D3A               	rlf	??___ftadd+1,w
  1248  015D  0D3B               	rlf	??___ftadd+2,w
  1249  015E  00BC               	movwf	??___ftadd+3
  1250  015F  083C               	movf	??___ftadd+3,w
  1251  0160  00BF               	movwf	___ftadd@exp1
  1252  0161  0836               	movf	___ftadd@f2,w
  1253  0162  00B9               	movwf	??___ftadd
  1254  0163  0837               	movf	___ftadd@f2+1,w
  1255  0164  00BA               	movwf	??___ftadd+1
  1256  0165  0838               	movf	___ftadd@f2+2,w
  1257  0166  00BB               	movwf	??___ftadd+2
  1258  0167  1003               	clrc
  1259  0168  0D3A               	rlf	??___ftadd+1,w
  1260  0169  0D3B               	rlf	??___ftadd+2,w
  1261  016A  00BC               	movwf	??___ftadd+3
  1262  016B  083C               	movf	??___ftadd+3,w
  1263  016C  00BE               	movwf	___ftadd@exp2
  1264  016D  083F               	movf	___ftadd@exp1,w
  1265  016E  1903               	btfsc	3,2
  1266  016F  297C               	goto	l1674
  1267  0170  083E               	movf	___ftadd@exp2,w
  1268  0171  023F               	subwf	___ftadd@exp1,w
  1269  0172  1803               	skipnc
  1270  0173  2983               	goto	l1678
  1271  0174  033F               	decf	___ftadd@exp1,w
  1272  0175  3AFF               	xorlw	255
  1273  0176  073E               	addwf	___ftadd@exp2,w
  1274  0177  00B9               	movwf	??___ftadd
  1275  0178  3019               	movlw	25
  1276  0179  0239               	subwf	??___ftadd,w
  1277  017A  1C03               	skipc
  1278  017B  2983               	goto	l1678
  1279  017C                     l1674:	
  1280  017C  0836               	movf	___ftadd@f2,w
  1281  017D  00B3               	movwf	?___ftadd
  1282  017E  0837               	movf	___ftadd@f2+1,w
  1283  017F  00B4               	movwf	?___ftadd+1
  1284  0180  0838               	movf	___ftadd@f2+2,w
  1285  0181  00B5               	movwf	?___ftadd+2
  1286  0182  0008               	return
  1287  0183                     l1678:	
  1288  0183  083E               	movf	___ftadd@exp2,w
  1289  0184  1903               	btfsc	3,2
  1290  0185  0008               	return
  1291  0186  083F               	movf	___ftadd@exp1,w
  1292  0187  023E               	subwf	___ftadd@exp2,w
  1293  0188  1803               	skipnc
  1294  0189  2992               	goto	l1684
  1295  018A  033E               	decf	___ftadd@exp2,w
  1296  018B  3AFF               	xorlw	255
  1297  018C  073F               	addwf	___ftadd@exp1,w
  1298  018D  00B9               	movwf	??___ftadd
  1299  018E  3019               	movlw	25
  1300  018F  0239               	subwf	??___ftadd,w
  1301  0190  1803               	btfsc	3,0
  1302  0191  0008               	return
  1303  0192                     l1684:	
  1304  0192  3006               	movlw	6
  1305  0193  00B9               	movwf	??___ftadd
  1306  0194  0839               	movf	??___ftadd,w
  1307  0195  00BD               	movwf	___ftadd@sign
  1308  0196  1BB5               	btfsc	___ftadd@f1+2,7
  1309  0197  17BD               	bsf	___ftadd@sign,7
  1310  0198  1BB8               	btfsc	___ftadd@f2+2,7
  1311  0199  173D               	bsf	___ftadd@sign,6
  1312  019A  17B4               	bsf	___ftadd@f1+1,7
  1313  019B  30FF               	movlw	255
  1314  019C  05B3               	andwf	___ftadd@f1,f
  1315  019D  30FF               	movlw	255
  1316  019E  05B4               	andwf	___ftadd@f1+1,f
  1317  019F  3000               	movlw	0
  1318  01A0  05B5               	andwf	___ftadd@f1+2,f
  1319  01A1  17B7               	bsf	___ftadd@f2+1,7
  1320  01A2  30FF               	movlw	255
  1321  01A3  05B6               	andwf	___ftadd@f2,f
  1322  01A4  30FF               	movlw	255
  1323  01A5  05B7               	andwf	___ftadd@f2+1,f
  1324  01A6  3000               	movlw	0
  1325  01A7  05B8               	andwf	___ftadd@f2+2,f
  1326  01A8  083E               	movf	___ftadd@exp2,w
  1327  01A9  023F               	subwf	___ftadd@exp1,w
  1328  01AA  1803               	skipnc
  1329  01AB  29D2               	goto	l1706
  1330  01AC                     l1696:	
  1331  01AC  3001               	movlw	1
  1332  01AD                     u2385:	
  1333  01AD  1003               	clrc
  1334  01AE  0DB6               	rlf	___ftadd@f2,f
  1335  01AF  0DB7               	rlf	___ftadd@f2+1,f
  1336  01B0  0DB8               	rlf	___ftadd@f2+2,f
  1337  01B1  3EFF               	addlw	-1
  1338  01B2  1D03               	skipz
  1339  01B3  29AD               	goto	u2385
  1340  01B4  3001               	movlw	1
  1341  01B5  02BE               	subwf	___ftadd@exp2,f
  1342  01B6  083E               	movf	___ftadd@exp2,w
  1343  01B7  063F               	xorwf	___ftadd@exp1,w
  1344  01B8  1903               	skipnz
  1345  01B9  29CD               	goto	l1704
  1346  01BA  3001               	movlw	1
  1347  01BB  02BD               	subwf	___ftadd@sign,f
  1348  01BC  083D               	movf	___ftadd@sign,w
  1349  01BD  3907               	andlw	7
  1350  01BE  1903               	btfsc	3,2
  1351  01BF  29CD               	goto	l1704
  1352  01C0  29AC               	goto	l1696
  1353  01C1                     l1702:	
  1354  01C1  3001               	movlw	1
  1355  01C2                     u2415:	
  1356  01C2  1003               	clrc
  1357  01C3  0CB5               	rrf	___ftadd@f1+2,f
  1358  01C4  0CB4               	rrf	___ftadd@f1+1,f
  1359  01C5  0CB3               	rrf	___ftadd@f1,f
  1360  01C6  3EFF               	addlw	-1
  1361  01C7  1D03               	skipz
  1362  01C8  29C2               	goto	u2415
  1363  01C9  3001               	movlw	1
  1364  01CA  00B9               	movwf	??___ftadd
  1365  01CB  0839               	movf	??___ftadd,w
  1366  01CC  07BF               	addwf	___ftadd@exp1,f
  1367  01CD                     l1704:	
  1368  01CD  083F               	movf	___ftadd@exp1,w
  1369  01CE  063E               	xorwf	___ftadd@exp2,w
  1370  01CF  1903               	btfsc	3,2
  1371  01D0  29FB               	goto	l424
  1372  01D1  29C1               	goto	l1702
  1373  01D2                     l1706:	
  1374  01D2  083F               	movf	___ftadd@exp1,w
  1375  01D3  023E               	subwf	___ftadd@exp2,w
  1376  01D4  1803               	skipnc
  1377  01D5  29FB               	goto	l424
  1378  01D6                     l1708:	
  1379  01D6  3001               	movlw	1
  1380  01D7                     u2445:	
  1381  01D7  1003               	clrc
  1382  01D8  0DB3               	rlf	___ftadd@f1,f
  1383  01D9  0DB4               	rlf	___ftadd@f1+1,f
  1384  01DA  0DB5               	rlf	___ftadd@f1+2,f
  1385  01DB  3EFF               	addlw	-1
  1386  01DC  1D03               	skipz
  1387  01DD  29D7               	goto	u2445
  1388  01DE  3001               	movlw	1
  1389  01DF  02BF               	subwf	___ftadd@exp1,f
  1390  01E0  083E               	movf	___ftadd@exp2,w
  1391  01E1  063F               	xorwf	___ftadd@exp1,w
  1392  01E2  1903               	skipnz
  1393  01E3  29F7               	goto	l1716
  1394  01E4  3001               	movlw	1
  1395  01E5  02BD               	subwf	___ftadd@sign,f
  1396  01E6  083D               	movf	___ftadd@sign,w
  1397  01E7  3907               	andlw	7
  1398  01E8  1903               	btfsc	3,2
  1399  01E9  29F7               	goto	l1716
  1400  01EA  29D6               	goto	l1708
  1401  01EB                     l1714:	
  1402  01EB  3001               	movlw	1
  1403  01EC                     u2475:	
  1404  01EC  1003               	clrc
  1405  01ED  0CB8               	rrf	___ftadd@f2+2,f
  1406  01EE  0CB7               	rrf	___ftadd@f2+1,f
  1407  01EF  0CB6               	rrf	___ftadd@f2,f
  1408  01F0  3EFF               	addlw	-1
  1409  01F1  1D03               	skipz
  1410  01F2  29EC               	goto	u2475
  1411  01F3  3001               	movlw	1
  1412  01F4  00B9               	movwf	??___ftadd
  1413  01F5  0839               	movf	??___ftadd,w
  1414  01F6  07BE               	addwf	___ftadd@exp2,f
  1415  01F7                     l1716:	
  1416  01F7  083F               	movf	___ftadd@exp1,w
  1417  01F8  063E               	xorwf	___ftadd@exp2,w
  1418  01F9  1D03               	skipz
  1419  01FA  29EB               	goto	l1714
  1420  01FB                     l424:	
  1421  01FB  1FBD               	btfss	___ftadd@sign,7
  1422  01FC  2A0D               	goto	l1720
  1423  01FD  30FF               	movlw	255
  1424  01FE  06B3               	xorwf	___ftadd@f1,f
  1425  01FF  30FF               	movlw	255
  1426  0200  06B4               	xorwf	___ftadd@f1+1,f
  1427  0201  30FF               	movlw	255
  1428  0202  06B5               	xorwf	___ftadd@f1+2,f
  1429  0203  3001               	movlw	1
  1430  0204  07B3               	addwf	___ftadd@f1,f
  1431  0205  3000               	movlw	0
  1432  0206  1803               	skipnc
  1433  0207  3001               	movlw	1
  1434  0208  07B4               	addwf	___ftadd@f1+1,f
  1435  0209  3000               	movlw	0
  1436  020A  1803               	skipnc
  1437  020B  3001               	movlw	1
  1438  020C  07B5               	addwf	___ftadd@f1+2,f
  1439  020D                     l1720:	
  1440  020D  1F3D               	btfss	___ftadd@sign,6
  1441  020E  2A1F               	goto	l1724
  1442  020F  30FF               	movlw	255
  1443  0210  06B6               	xorwf	___ftadd@f2,f
  1444  0211  30FF               	movlw	255
  1445  0212  06B7               	xorwf	___ftadd@f2+1,f
  1446  0213  30FF               	movlw	255
  1447  0214  06B8               	xorwf	___ftadd@f2+2,f
  1448  0215  3001               	movlw	1
  1449  0216  07B6               	addwf	___ftadd@f2,f
  1450  0217  3000               	movlw	0
  1451  0218  1803               	skipnc
  1452  0219  3001               	movlw	1
  1453  021A  07B7               	addwf	___ftadd@f2+1,f
  1454  021B  3000               	movlw	0
  1455  021C  1803               	skipnc
  1456  021D  3001               	movlw	1
  1457  021E  07B8               	addwf	___ftadd@f2+2,f
  1458  021F                     l1724:	
  1459  021F  01BD               	clrf	___ftadd@sign
  1460  0220  0833               	movf	___ftadd@f1,w
  1461  0221  07B6               	addwf	___ftadd@f2,f
  1462  0222  0834               	movf	___ftadd@f1+1,w
  1463  0223  1103               	clrz
  1464  0224  1803               	skipnc
  1465  0225  0A34               	incf	___ftadd@f1+1,w
  1466  0226  1D03               	btfss	3,2
  1467  0227  07B7               	addwf	___ftadd@f2+1,f
  1468  0228  0835               	movf	___ftadd@f1+2,w
  1469  0229  1103               	clrz
  1470  022A  1803               	skipnc
  1471  022B  0A35               	incf	___ftadd@f1+2,w
  1472  022C  1D03               	btfss	3,2
  1473  022D  07B8               	addwf	___ftadd@f2+2,f
  1474  022E  1FB8               	btfss	___ftadd@f2+2,7
  1475  022F  2A42               	goto	l1734
  1476  0230  30FF               	movlw	255
  1477  0231  06B6               	xorwf	___ftadd@f2,f
  1478  0232  30FF               	movlw	255
  1479  0233  06B7               	xorwf	___ftadd@f2+1,f
  1480  0234  30FF               	movlw	255
  1481  0235  06B8               	xorwf	___ftadd@f2+2,f
  1482  0236  3001               	movlw	1
  1483  0237  07B6               	addwf	___ftadd@f2,f
  1484  0238  3000               	movlw	0
  1485  0239  1803               	skipnc
  1486  023A  3001               	movlw	1
  1487  023B  07B7               	addwf	___ftadd@f2+1,f
  1488  023C  3000               	movlw	0
  1489  023D  1803               	skipnc
  1490  023E  3001               	movlw	1
  1491  023F  07B8               	addwf	___ftadd@f2+2,f
  1492  0240  01BD               	clrf	___ftadd@sign
  1493  0241  0ABD               	incf	___ftadd@sign,f
  1494  0242                     l1734:	
  1495  0242  0836               	movf	___ftadd@f2,w
  1496  0243  00F0               	movwf	___ftpack@arg
  1497  0244  0837               	movf	___ftadd@f2+1,w
  1498  0245  00F1               	movwf	___ftpack@arg+1
  1499  0246  0838               	movf	___ftadd@f2+2,w
  1500  0247  00F2               	movwf	___ftpack@arg+2
  1501  0248  083F               	movf	___ftadd@exp1,w
  1502  0249  00B9               	movwf	??___ftadd
  1503  024A  0839               	movf	??___ftadd,w
  1504  024B  00F3               	movwf	___ftpack@exp
  1505  024C  083D               	movf	___ftadd@sign,w
  1506  024D  00BA               	movwf	??___ftadd+1
  1507  024E  083A               	movf	??___ftadd+1,w
  1508  024F  00F4               	movwf	___ftpack@sign
  1509  0250  120A  158A  2236   	fcall	___ftpack
  1510  0253  0870               	movf	?___ftpack,w
  1511  0254  1283               	bcf	3,5	;RP0=0, select bank0
  1512  0255  1303               	bcf	3,6	;RP1=0, select bank0
  1513  0256  00B3               	movwf	?___ftadd
  1514  0257  0871               	movf	?___ftpack+1,w
  1515  0258  00B4               	movwf	?___ftadd+1
  1516  0259  0872               	movf	?___ftpack+2,w
  1517  025A  00B5               	movwf	?___ftadd+2
  1518  025B  0008               	return
  1519  025C                     __end_of___ftadd:	
  1520                           
  1521                           	psect	text4
  1522  0980                     __ptext4:	
  1523 ;; *************** function ___awdiv *****************
  1524 ;; Defined at:
  1525 ;;		line 6 in file "C:\Program Files (x86)\Microchip\xc8\v1.45\sources\common\awdiv.c"
  1526 ;; Parameters:    Size  Location     Type
  1527 ;;  divisor         2    0[COMMON] int 
  1528 ;;  dividend        2    2[COMMON] int 
  1529 ;; Auto vars:     Size  Location     Type
  1530 ;;  quotient        2    7[COMMON] int 
  1531 ;;  sign            1    6[COMMON] unsigned char 
  1532 ;;  counter         1    5[COMMON] unsigned char 
  1533 ;; Return value:  Size  Location     Type
  1534 ;;                  2    0[COMMON] int 
  1535 ;; Registers used:
  1536 ;;		wreg, status,2, status,0
  1537 ;; Tracked objects:
  1538 ;;		On entry : 0/0
  1539 ;;		On exit  : 0/0
  1540 ;;		Unchanged: 0/0
  1541 ;; Data sizes:     COMMON   BANK0   BANK1   BANK3   BANK2
  1542 ;;      Params:         4       0       0       0       0
  1543 ;;      Locals:         4       0       0       0       0
  1544 ;;      Temps:          1       0       0       0       0
  1545 ;;      Totals:         9       0       0       0       0
  1546 ;;Total ram usage:        9 bytes
  1547 ;; Hardware stack levels used:    1
  1548 ;; This function calls:
  1549 ;;		Nothing
  1550 ;; This function is called by:
  1551 ;;		_main
  1552 ;; This function uses a non-reentrant model
  1553 ;;
  1554                           
  1555                           
  1556                           ;psect for function ___awdiv
  1557  0980                     ___awdiv:	
  1558                           
  1559                           ;incstack = 0
  1560                           ; Regs used in ___awdiv: [wreg+status,2+status,0]
  1561  0980  01F6               	clrf	___awdiv@sign
  1562  0981  1FF1               	btfss	___awdiv@divisor+1,7
  1563  0982  298A               	goto	l1632
  1564  0983  09F0               	comf	___awdiv@divisor,f
  1565  0984  09F1               	comf	___awdiv@divisor+1,f
  1566  0985  0AF0               	incf	___awdiv@divisor,f
  1567  0986  1903               	skipnz
  1568  0987  0AF1               	incf	___awdiv@divisor+1,f
  1569  0988  01F6               	clrf	___awdiv@sign
  1570  0989  0AF6               	incf	___awdiv@sign,f
  1571  098A                     l1632:	
  1572  098A  1FF3               	btfss	___awdiv@dividend+1,7
  1573  098B  2995               	goto	l1638
  1574  098C  09F2               	comf	___awdiv@dividend,f
  1575  098D  09F3               	comf	___awdiv@dividend+1,f
  1576  098E  0AF2               	incf	___awdiv@dividend,f
  1577  098F  1903               	skipnz
  1578  0990  0AF3               	incf	___awdiv@dividend+1,f
  1579  0991  3001               	movlw	1
  1580  0992  00F4               	movwf	??___awdiv
  1581  0993  0874               	movf	??___awdiv,w
  1582  0994  06F6               	xorwf	___awdiv@sign,f
  1583  0995                     l1638:	
  1584  0995  01F7               	clrf	___awdiv@quotient
  1585  0996  01F8               	clrf	___awdiv@quotient+1
  1586  0997  0870               	movf	___awdiv@divisor,w
  1587  0998  0471               	iorwf	___awdiv@divisor+1,w
  1588  0999  1903               	btfsc	3,2
  1589  099A  29CC               	goto	l1660
  1590  099B  01F5               	clrf	___awdiv@counter
  1591  099C  0AF5               	incf	___awdiv@counter,f
  1592  099D                     l1648:	
  1593  099D  1BF1               	btfsc	___awdiv@divisor+1,7
  1594  099E  29AB               	goto	l1650
  1595  099F  3001               	movlw	1
  1596  09A0                     u2225:	
  1597  09A0  1003               	clrc
  1598  09A1  0DF0               	rlf	___awdiv@divisor,f
  1599  09A2  0DF1               	rlf	___awdiv@divisor+1,f
  1600  09A3  3EFF               	addlw	-1
  1601  09A4  1D03               	skipz
  1602  09A5  29A0               	goto	u2225
  1603  09A6  3001               	movlw	1
  1604  09A7  00F4               	movwf	??___awdiv
  1605  09A8  0874               	movf	??___awdiv,w
  1606  09A9  07F5               	addwf	___awdiv@counter,f
  1607  09AA  299D               	goto	l1648
  1608  09AB                     l1650:	
  1609  09AB  3001               	movlw	1
  1610  09AC                     u2245:	
  1611  09AC  1003               	clrc
  1612  09AD  0DF7               	rlf	___awdiv@quotient,f
  1613  09AE  0DF8               	rlf	___awdiv@quotient+1,f
  1614  09AF  3EFF               	addlw	-1
  1615  09B0  1D03               	skipz
  1616  09B1  29AC               	goto	u2245
  1617  09B2  0871               	movf	___awdiv@divisor+1,w
  1618  09B3  0273               	subwf	___awdiv@dividend+1,w
  1619  09B4  1D03               	skipz
  1620  09B5  29B8               	goto	u2255
  1621  09B6  0870               	movf	___awdiv@divisor,w
  1622  09B7  0272               	subwf	___awdiv@dividend,w
  1623  09B8                     u2255:	
  1624  09B8  1C03               	skipc
  1625  09B9  29C1               	goto	l1656
  1626  09BA  0870               	movf	___awdiv@divisor,w
  1627  09BB  02F2               	subwf	___awdiv@dividend,f
  1628  09BC  0871               	movf	___awdiv@divisor+1,w
  1629  09BD  1C03               	skipc
  1630  09BE  03F3               	decf	___awdiv@dividend+1,f
  1631  09BF  02F3               	subwf	___awdiv@dividend+1,f
  1632  09C0  1477               	bsf	___awdiv@quotient,0
  1633  09C1                     l1656:	
  1634  09C1  3001               	movlw	1
  1635  09C2                     u2265:	
  1636  09C2  1003               	clrc
  1637  09C3  0CF1               	rrf	___awdiv@divisor+1,f
  1638  09C4  0CF0               	rrf	___awdiv@divisor,f
  1639  09C5  3EFF               	addlw	-1
  1640  09C6  1D03               	skipz
  1641  09C7  29C2               	goto	u2265
  1642  09C8  3001               	movlw	1
  1643  09C9  02F5               	subwf	___awdiv@counter,f
  1644  09CA  1D03               	btfss	3,2
  1645  09CB  29AB               	goto	l1650
  1646  09CC                     l1660:	
  1647  09CC  0876               	movf	___awdiv@sign,w
  1648  09CD  1903               	btfsc	3,2
  1649  09CE  29D4               	goto	l1664
  1650  09CF  09F7               	comf	___awdiv@quotient,f
  1651  09D0  09F8               	comf	___awdiv@quotient+1,f
  1652  09D1  0AF7               	incf	___awdiv@quotient,f
  1653  09D2  1903               	skipnz
  1654  09D3  0AF8               	incf	___awdiv@quotient+1,f
  1655  09D4                     l1664:	
  1656  09D4  0878               	movf	___awdiv@quotient+1,w
  1657  09D5  00F1               	movwf	?___awdiv+1
  1658  09D6  0877               	movf	___awdiv@quotient,w
  1659  09D7  00F0               	movwf	?___awdiv
  1660  09D8  0008               	return
  1661  09D9                     __end_of___awdiv:	
  1662                           
  1663                           	psect	text5
  1664  0941                     __ptext5:	
  1665 ;; *************** function _PWM2_Init *****************
  1666 ;; Defined at:
  1667 ;;		line 40 in file "maincode.c"
  1668 ;; Parameters:    Size  Location     Type
  1669 ;;  fre             4    6[BANK0 ] long 
  1670 ;; Auto vars:     Size  Location     Type
  1671 ;;		None
  1672 ;; Return value:  Size  Location     Type
  1673 ;;                  2    6[BANK0 ] int 
  1674 ;; Registers used:
  1675 ;;		wreg, status,2, status,0, pclath, cstack
  1676 ;; Tracked objects:
  1677 ;;		On entry : 0/0
  1678 ;;		On exit  : 0/0
  1679 ;;		Unchanged: 0/0
  1680 ;; Data sizes:     COMMON   BANK0   BANK1   BANK3   BANK2
  1681 ;;      Params:         0       4       0       0       0
  1682 ;;      Locals:         0       0       0       0       0
  1683 ;;      Temps:          4       0       0       0       0
  1684 ;;      Totals:         4       4       0       0       0
  1685 ;;Total ram usage:        8 bytes
  1686 ;; Hardware stack levels used:    1
  1687 ;; Hardware stack levels required when called:    1
  1688 ;; This function calls:
  1689 ;;		___aldiv
  1690 ;; This function is called by:
  1691 ;;		_main
  1692 ;; This function uses a non-reentrant model
  1693 ;;
  1694                           
  1695                           
  1696                           ;psect for function _PWM2_Init
  1697  0941                     _PWM2_Init:	
  1698                           
  1699                           ;maincode.c: 42: PR2 = (16000000/(fre*4*4)) - 1;
  1700                           
  1701                           ;incstack = 0
  1702                           ; Regs used in _PWM2_Init: [wreg+status,2+status,0+pclath+cstack]
  1703  0941  1283               	bcf	3,5	;RP0=0, select bank0
  1704  0942  1303               	bcf	3,6	;RP1=0, select bank0
  1705  0943  0826               	movf	PWM2_Init@fre,w
  1706  0944  00F9               	movwf	??_PWM2_Init
  1707  0945  0827               	movf	PWM2_Init@fre+1,w
  1708  0946  00FA               	movwf	??_PWM2_Init+1
  1709  0947  0828               	movf	PWM2_Init@fre+2,w
  1710  0948  00FB               	movwf	??_PWM2_Init+2
  1711  0949  0829               	movf	PWM2_Init@fre+3,w
  1712  094A  00FC               	movwf	??_PWM2_Init+3
  1713  094B  3002               	movlw	2
  1714  094C                     u2135:	
  1715  094C  1003               	clrc
  1716  094D  0DF9               	rlf	??_PWM2_Init,f
  1717  094E  0DFA               	rlf	??_PWM2_Init+1,f
  1718  094F  0DFB               	rlf	??_PWM2_Init+2,f
  1719  0950  0DFC               	rlf	??_PWM2_Init+3,f
  1720  0951  3EFF               	addlw	-1
  1721  0952  1D03               	skipz
  1722  0953  294C               	goto	u2135
  1723  0954  3002               	movlw	2
  1724  0955                     u2145:	
  1725  0955  1003               	clrc
  1726  0956  0DF9               	rlf	??_PWM2_Init,f
  1727  0957  0DFA               	rlf	??_PWM2_Init+1,f
  1728  0958  0DFB               	rlf	??_PWM2_Init+2,f
  1729  0959  0DFC               	rlf	??_PWM2_Init+3,f
  1730  095A  3EFF               	addlw	-1
  1731  095B  1D03               	skipz
  1732  095C  2955               	goto	u2145
  1733  095D  087C               	movf	??_PWM2_Init+3,w
  1734  095E  00F3               	movwf	___aldiv@divisor+3
  1735  095F  087B               	movf	??_PWM2_Init+2,w
  1736  0960  00F2               	movwf	___aldiv@divisor+2
  1737  0961  087A               	movf	??_PWM2_Init+1,w
  1738  0962  00F1               	movwf	___aldiv@divisor+1
  1739  0963  0879               	movf	??_PWM2_Init,w
  1740  0964  00F0               	movwf	___aldiv@divisor
  1741  0965  3000               	movlw	0
  1742  0966  00F7               	movwf	___aldiv@dividend+3
  1743  0967  30F4               	movlw	244
  1744  0968  00F6               	movwf	___aldiv@dividend+2
  1745  0969  3024               	movlw	36
  1746  096A  00F5               	movwf	___aldiv@dividend+1
  1747  096B  3000               	movlw	0
  1748  096C  00F4               	movwf	___aldiv@dividend
  1749  096D  120A  158A  239D   	fcall	___aldiv
  1750  0970  0870               	movf	?___aldiv,w
  1751  0971  3EFF               	addlw	255
  1752  0972  1683               	bsf	3,5	;RP0=1, select bank1
  1753  0973  1303               	bcf	3,6	;RP1=0, select bank1
  1754  0974  0092               	movwf	18	;volatile
  1755                           
  1756                           ;maincode.c: 43: freq = fre;
  1757  0975  1283               	bcf	3,5	;RP0=0, select bank0
  1758  0976  1303               	bcf	3,6	;RP1=0, select bank0
  1759  0977  0829               	movf	PWM2_Init@fre+3,w
  1760  0978  00E7               	movwf	_freq+3
  1761  0979  0828               	movf	PWM2_Init@fre+2,w
  1762  097A  00E6               	movwf	_freq+2
  1763  097B  0827               	movf	PWM2_Init@fre+1,w
  1764  097C  00E5               	movwf	_freq+1
  1765  097D  0826               	movf	PWM2_Init@fre,w
  1766  097E  00E4               	movwf	_freq
  1767  097F  0008               	return
  1768  0980                     __end_of_PWM2_Init:	
  1769                           
  1770                           	psect	text6
  1771  0013                     __ptext6:	
  1772 ;; *************** function _PWM2_Duty *****************
  1773 ;; Defined at:
  1774 ;;		line 55 in file "maincode.c"
  1775 ;; Parameters:    Size  Location     Type
  1776 ;;  duty            2   62[BANK0 ] unsigned int 
  1777 ;; Auto vars:     Size  Location     Type
  1778 ;;		None
  1779 ;; Return value:  Size  Location     Type
  1780 ;;                  2   62[BANK0 ] int 
  1781 ;; Registers used:
  1782 ;;		wreg, status,2, status,0, pclath, cstack
  1783 ;; Tracked objects:
  1784 ;;		On entry : 0/0
  1785 ;;		On exit  : 0/0
  1786 ;;		Unchanged: 0/0
  1787 ;; Data sizes:     COMMON   BANK0   BANK1   BANK3   BANK2
  1788 ;;      Params:         0       2       0       0       0
  1789 ;;      Locals:         0       0       0       0       0
  1790 ;;      Temps:          0       2       0       0       0
  1791 ;;      Totals:         0       4       0       0       0
  1792 ;;Total ram usage:        4 bytes
  1793 ;; Hardware stack levels used:    1
  1794 ;; Hardware stack levels required when called:    2
  1795 ;; This function calls:
  1796 ;;		_PWM_Max_Duty
  1797 ;;		___awtoft
  1798 ;;		___ftdiv
  1799 ;;		___ftmul
  1800 ;;		___fttol
  1801 ;;		___lwtoft
  1802 ;; This function is called by:
  1803 ;;		_main
  1804 ;; This function uses a non-reentrant model
  1805 ;;
  1806                           
  1807                           
  1808                           ;psect for function _PWM2_Duty
  1809  0013                     _PWM2_Duty:	
  1810                           
  1811                           ;maincode.c: 58: {
  1812                           ;maincode.c: 59: duty = ((float)duty/1023)*PWM_Max_Duty();
  1813                           
  1814                           ;incstack = 0
  1815                           ; Regs used in _PWM2_Duty: [wreg+status,2+status,0+pclath+cstack]
  1816  0013  1283               	bcf	3,5	;RP0=0, select bank0
  1817  0014  1303               	bcf	3,6	;RP1=0, select bank0
  1818  0015  085F               	movf	PWM2_Duty@duty+1,w
  1819  0016  00F9               	movwf	___lwtoft@c+1
  1820  0017  085E               	movf	PWM2_Duty@duty,w
  1821  0018  00F8               	movwf	___lwtoft@c
  1822  0019  120A  158A  209C  120A  118A  	fcall	___lwtoft
  1823  001E  0878               	movf	?___lwtoft,w
  1824  001F  1283               	bcf	3,5	;RP0=0, select bank0
  1825  0020  1303               	bcf	3,6	;RP1=0, select bank0
  1826  0021  00A3               	movwf	___ftdiv@f1
  1827  0022  0879               	movf	?___lwtoft+1,w
  1828  0023  00A4               	movwf	___ftdiv@f1+1
  1829  0024  087A               	movf	?___lwtoft+2,w
  1830  0025  00A5               	movwf	___ftdiv@f1+2
  1831  0026  30C0               	movlw	192
  1832  0027  00A0               	movwf	___ftdiv@f2
  1833  0028  307F               	movlw	127
  1834  0029  00A1               	movwf	___ftdiv@f2+1
  1835  002A  3044               	movlw	68
  1836  002B  00A2               	movwf	___ftdiv@f2+2
  1837  002C  120A  158A  24C2  120A  118A  	fcall	___ftdiv
  1838  0031  1283               	bcf	3,5	;RP0=0, select bank0
  1839  0032  1303               	bcf	3,6	;RP1=0, select bank0
  1840  0033  0820               	movf	?___ftdiv,w
  1841  0034  00C3               	movwf	___ftmul@f2
  1842  0035  0821               	movf	?___ftdiv+1,w
  1843  0036  00C4               	movwf	___ftmul@f2+1
  1844  0037  0822               	movf	?___ftdiv+2,w
  1845  0038  00C5               	movwf	___ftmul@f2+2
  1846  0039  120A  158A  20D5  120A  118A  	fcall	_PWM_Max_Duty
  1847  003E  1283               	bcf	3,5	;RP0=0, select bank0
  1848  003F  1303               	bcf	3,6	;RP1=0, select bank0
  1849  0040  0827               	movf	?_PWM_Max_Duty+1,w
  1850  0041  00A9               	movwf	___awtoft@c+1
  1851  0042  0826               	movf	?_PWM_Max_Duty,w
  1852  0043  00A8               	movwf	___awtoft@c
  1853  0044  120A  158A  20B0  120A  118A  	fcall	___awtoft
  1854  0049  1283               	bcf	3,5	;RP0=0, select bank0
  1855  004A  1303               	bcf	3,6	;RP1=0, select bank0
  1856  004B  0828               	movf	?___awtoft,w
  1857  004C  00C0               	movwf	___ftmul@f1
  1858  004D  0829               	movf	?___awtoft+1,w
  1859  004E  00C1               	movwf	___ftmul@f1+1
  1860  004F  082A               	movf	?___awtoft+2,w
  1861  0050  00C2               	movwf	___ftmul@f1+2
  1862  0051  120A  118A  2080  120A  118A  	fcall	___ftmul
  1863  0056  1283               	bcf	3,5	;RP0=0, select bank0
  1864  0057  1303               	bcf	3,6	;RP1=0, select bank0
  1865  0058  0840               	movf	?___ftmul,w
  1866  0059  00D0               	movwf	___fttol@f1
  1867  005A  0841               	movf	?___ftmul+1,w
  1868  005B  00D1               	movwf	___fttol@f1+1
  1869  005C  0842               	movf	?___ftmul+2,w
  1870  005D  00D2               	movwf	___fttol@f1+2
  1871  005E  120A  158A  230F  120A  118A  	fcall	___fttol
  1872  0063  1283               	bcf	3,5	;RP0=0, select bank0
  1873  0064  1303               	bcf	3,6	;RP1=0, select bank0
  1874  0065  0851               	movf	?___fttol+1,w
  1875  0066  00DF               	movwf	PWM2_Duty@duty+1
  1876  0067  0850               	movf	?___fttol,w
  1877  0068  00DE               	movwf	PWM2_Duty@duty
  1878                           
  1879                           ;maincode.c: 60: CCP2X = duty & 2;
  1880  0069  129D               	bcf	29,5	;volatile
  1881                           
  1882                           ;maincode.c: 61: CCP2Y = duty & 1;
  1883  006A  1C5E               	btfss	PWM2_Duty@duty,0
  1884  006B  2870               	goto	u2170
  1885  006C  1283               	bcf	3,5	;RP0=0, select bank0
  1886  006D  1303               	bcf	3,6	;RP1=0, select bank0
  1887  006E  161D               	bsf	29,4	;volatile
  1888  006F  2873               	goto	l1622
  1889  0070                     u2170:	
  1890  0070  1283               	bcf	3,5	;RP0=0, select bank0
  1891  0071  1303               	bcf	3,6	;RP1=0, select bank0
  1892  0072  121D               	bcf	29,4	;volatile
  1893  0073                     l1622:	
  1894                           
  1895                           ;maincode.c: 62: CCPR2L = duty>>2;
  1896  0073  085F               	movf	PWM2_Duty@duty+1,w
  1897  0074  00E1               	movwf	??_PWM2_Duty+1
  1898  0075  085E               	movf	PWM2_Duty@duty,w
  1899  0076  00E0               	movwf	??_PWM2_Duty
  1900  0077  1003               	clrc
  1901  0078  0CE1               	rrf	??_PWM2_Duty+1,f
  1902  0079  0CE0               	rrf	??_PWM2_Duty,f
  1903  007A  1003               	clrc
  1904  007B  0CE1               	rrf	??_PWM2_Duty+1,f
  1905  007C  0CE0               	rrf	??_PWM2_Duty,f
  1906  007D  0860               	movf	??_PWM2_Duty,w
  1907  007E  009B               	movwf	27	;volatile
  1908  007F  0008               	return
  1909  0080                     __end_of_PWM2_Duty:	
  1910                           
  1911                           	psect	text7
  1912  0902                     __ptext7:	
  1913 ;; *************** function _PWM1_Init *****************
  1914 ;; Defined at:
  1915 ;;		line 35 in file "maincode.c"
  1916 ;; Parameters:    Size  Location     Type
  1917 ;;  fre             4    6[BANK0 ] long 
  1918 ;; Auto vars:     Size  Location     Type
  1919 ;;		None
  1920 ;; Return value:  Size  Location     Type
  1921 ;;                  2    6[BANK0 ] int 
  1922 ;; Registers used:
  1923 ;;		wreg, status,2, status,0, pclath, cstack
  1924 ;; Tracked objects:
  1925 ;;		On entry : 0/0
  1926 ;;		On exit  : 0/0
  1927 ;;		Unchanged: 0/0
  1928 ;; Data sizes:     COMMON   BANK0   BANK1   BANK3   BANK2
  1929 ;;      Params:         0       4       0       0       0
  1930 ;;      Locals:         0       0       0       0       0
  1931 ;;      Temps:          4       0       0       0       0
  1932 ;;      Totals:         4       4       0       0       0
  1933 ;;Total ram usage:        8 bytes
  1934 ;; Hardware stack levels used:    1
  1935 ;; Hardware stack levels required when called:    1
  1936 ;; This function calls:
  1937 ;;		___aldiv
  1938 ;; This function is called by:
  1939 ;;		_main
  1940 ;; This function uses a non-reentrant model
  1941 ;;
  1942                           
  1943                           
  1944                           ;psect for function _PWM1_Init
  1945  0902                     _PWM1_Init:	
  1946                           
  1947                           ;maincode.c: 37: PR2 = (16000000/(fre*4*4)) - 1;
  1948                           
  1949                           ;incstack = 0
  1950                           ; Regs used in _PWM1_Init: [wreg+status,2+status,0+pclath+cstack]
  1951  0902  1283               	bcf	3,5	;RP0=0, select bank0
  1952  0903  1303               	bcf	3,6	;RP1=0, select bank0
  1953  0904  0826               	movf	PWM1_Init@fre,w
  1954  0905  00F9               	movwf	??_PWM1_Init
  1955  0906  0827               	movf	PWM1_Init@fre+1,w
  1956  0907  00FA               	movwf	??_PWM1_Init+1
  1957  0908  0828               	movf	PWM1_Init@fre+2,w
  1958  0909  00FB               	movwf	??_PWM1_Init+2
  1959  090A  0829               	movf	PWM1_Init@fre+3,w
  1960  090B  00FC               	movwf	??_PWM1_Init+3
  1961  090C  3002               	movlw	2
  1962  090D                     u2115:	
  1963  090D  1003               	clrc
  1964  090E  0DF9               	rlf	??_PWM1_Init,f
  1965  090F  0DFA               	rlf	??_PWM1_Init+1,f
  1966  0910  0DFB               	rlf	??_PWM1_Init+2,f
  1967  0911  0DFC               	rlf	??_PWM1_Init+3,f
  1968  0912  3EFF               	addlw	-1
  1969  0913  1D03               	skipz
  1970  0914  290D               	goto	u2115
  1971  0915  3002               	movlw	2
  1972  0916                     u2125:	
  1973  0916  1003               	clrc
  1974  0917  0DF9               	rlf	??_PWM1_Init,f
  1975  0918  0DFA               	rlf	??_PWM1_Init+1,f
  1976  0919  0DFB               	rlf	??_PWM1_Init+2,f
  1977  091A  0DFC               	rlf	??_PWM1_Init+3,f
  1978  091B  3EFF               	addlw	-1
  1979  091C  1D03               	skipz
  1980  091D  2916               	goto	u2125
  1981  091E  087C               	movf	??_PWM1_Init+3,w
  1982  091F  00F3               	movwf	___aldiv@divisor+3
  1983  0920  087B               	movf	??_PWM1_Init+2,w
  1984  0921  00F2               	movwf	___aldiv@divisor+2
  1985  0922  087A               	movf	??_PWM1_Init+1,w
  1986  0923  00F1               	movwf	___aldiv@divisor+1
  1987  0924  0879               	movf	??_PWM1_Init,w
  1988  0925  00F0               	movwf	___aldiv@divisor
  1989  0926  3000               	movlw	0
  1990  0927  00F7               	movwf	___aldiv@dividend+3
  1991  0928  30F4               	movlw	244
  1992  0929  00F6               	movwf	___aldiv@dividend+2
  1993  092A  3024               	movlw	36
  1994  092B  00F5               	movwf	___aldiv@dividend+1
  1995  092C  3000               	movlw	0
  1996  092D  00F4               	movwf	___aldiv@dividend
  1997  092E  120A  158A  239D   	fcall	___aldiv
  1998  0931  0870               	movf	?___aldiv,w
  1999  0932  3EFF               	addlw	255
  2000  0933  1683               	bsf	3,5	;RP0=1, select bank1
  2001  0934  1303               	bcf	3,6	;RP1=0, select bank1
  2002  0935  0092               	movwf	18	;volatile
  2003                           
  2004                           ;maincode.c: 38: freq = fre;
  2005  0936  1283               	bcf	3,5	;RP0=0, select bank0
  2006  0937  1303               	bcf	3,6	;RP1=0, select bank0
  2007  0938  0829               	movf	PWM1_Init@fre+3,w
  2008  0939  00E7               	movwf	_freq+3
  2009  093A  0828               	movf	PWM1_Init@fre+2,w
  2010  093B  00E6               	movwf	_freq+2
  2011  093C  0827               	movf	PWM1_Init@fre+1,w
  2012  093D  00E5               	movwf	_freq+1
  2013  093E  0826               	movf	PWM1_Init@fre,w
  2014  093F  00E4               	movwf	_freq
  2015  0940  0008               	return
  2016  0941                     __end_of_PWM1_Init:	
  2017                           
  2018                           	psect	text8
  2019  0AA2                     __ptext8:	
  2020 ;; *************** function _PWM1_Duty *****************
  2021 ;; Defined at:
  2022 ;;		line 45 in file "maincode.c"
  2023 ;; Parameters:    Size  Location     Type
  2024 ;;  duty            2   62[BANK0 ] unsigned int 
  2025 ;; Auto vars:     Size  Location     Type
  2026 ;;		None
  2027 ;; Return value:  Size  Location     Type
  2028 ;;                  2   62[BANK0 ] int 
  2029 ;; Registers used:
  2030 ;;		wreg, status,2, status,0, pclath, cstack
  2031 ;; Tracked objects:
  2032 ;;		On entry : 0/0
  2033 ;;		On exit  : 0/0
  2034 ;;		Unchanged: 0/0
  2035 ;; Data sizes:     COMMON   BANK0   BANK1   BANK3   BANK2
  2036 ;;      Params:         0       2       0       0       0
  2037 ;;      Locals:         0       0       0       0       0
  2038 ;;      Temps:          0       2       0       0       0
  2039 ;;      Totals:         0       4       0       0       0
  2040 ;;Total ram usage:        4 bytes
  2041 ;; Hardware stack levels used:    1
  2042 ;; Hardware stack levels required when called:    2
  2043 ;; This function calls:
  2044 ;;		_PWM_Max_Duty
  2045 ;;		___awtoft
  2046 ;;		___ftdiv
  2047 ;;		___ftmul
  2048 ;;		___fttol
  2049 ;;		___lwtoft
  2050 ;; This function is called by:
  2051 ;;		_main
  2052 ;; This function uses a non-reentrant model
  2053 ;;
  2054                           
  2055                           
  2056                           ;psect for function _PWM1_Duty
  2057  0AA2                     _PWM1_Duty:	
  2058                           
  2059                           ;maincode.c: 48: {
  2060                           ;maincode.c: 49: duty = ((float)duty/1023)*PWM_Max_Duty();
  2061                           
  2062                           ;incstack = 0
  2063                           ; Regs used in _PWM1_Duty: [wreg+status,2+status,0+pclath+cstack]
  2064  0AA2  1283               	bcf	3,5	;RP0=0, select bank0
  2065  0AA3  1303               	bcf	3,6	;RP1=0, select bank0
  2066  0AA4  085F               	movf	PWM1_Duty@duty+1,w
  2067  0AA5  00F9               	movwf	___lwtoft@c+1
  2068  0AA6  085E               	movf	PWM1_Duty@duty,w
  2069  0AA7  00F8               	movwf	___lwtoft@c
  2070  0AA8  120A  158A  209C  120A  158A  	fcall	___lwtoft
  2071  0AAD  0878               	movf	?___lwtoft,w
  2072  0AAE  1283               	bcf	3,5	;RP0=0, select bank0
  2073  0AAF  1303               	bcf	3,6	;RP1=0, select bank0
  2074  0AB0  00A3               	movwf	___ftdiv@f1
  2075  0AB1  0879               	movf	?___lwtoft+1,w
  2076  0AB2  00A4               	movwf	___ftdiv@f1+1
  2077  0AB3  087A               	movf	?___lwtoft+2,w
  2078  0AB4  00A5               	movwf	___ftdiv@f1+2
  2079  0AB5  30C0               	movlw	192
  2080  0AB6  00A0               	movwf	___ftdiv@f2
  2081  0AB7  307F               	movlw	127
  2082  0AB8  00A1               	movwf	___ftdiv@f2+1
  2083  0AB9  3044               	movlw	68
  2084  0ABA  00A2               	movwf	___ftdiv@f2+2
  2085  0ABB  120A  158A  24C2  120A  158A  	fcall	___ftdiv
  2086  0AC0  1283               	bcf	3,5	;RP0=0, select bank0
  2087  0AC1  1303               	bcf	3,6	;RP1=0, select bank0
  2088  0AC2  0820               	movf	?___ftdiv,w
  2089  0AC3  00C3               	movwf	___ftmul@f2
  2090  0AC4  0821               	movf	?___ftdiv+1,w
  2091  0AC5  00C4               	movwf	___ftmul@f2+1
  2092  0AC6  0822               	movf	?___ftdiv+2,w
  2093  0AC7  00C5               	movwf	___ftmul@f2+2
  2094  0AC8  120A  158A  20D5  120A  158A  	fcall	_PWM_Max_Duty
  2095  0ACD  1283               	bcf	3,5	;RP0=0, select bank0
  2096  0ACE  1303               	bcf	3,6	;RP1=0, select bank0
  2097  0ACF  0827               	movf	?_PWM_Max_Duty+1,w
  2098  0AD0  00A9               	movwf	___awtoft@c+1
  2099  0AD1  0826               	movf	?_PWM_Max_Duty,w
  2100  0AD2  00A8               	movwf	___awtoft@c
  2101  0AD3  120A  158A  20B0  120A  158A  	fcall	___awtoft
  2102  0AD8  1283               	bcf	3,5	;RP0=0, select bank0
  2103  0AD9  1303               	bcf	3,6	;RP1=0, select bank0
  2104  0ADA  0828               	movf	?___awtoft,w
  2105  0ADB  00C0               	movwf	___ftmul@f1
  2106  0ADC  0829               	movf	?___awtoft+1,w
  2107  0ADD  00C1               	movwf	___ftmul@f1+1
  2108  0ADE  082A               	movf	?___awtoft+2,w
  2109  0ADF  00C2               	movwf	___ftmul@f1+2
  2110  0AE0  120A  118A  2080  120A  158A  	fcall	___ftmul
  2111  0AE5  1283               	bcf	3,5	;RP0=0, select bank0
  2112  0AE6  1303               	bcf	3,6	;RP1=0, select bank0
  2113  0AE7  0840               	movf	?___ftmul,w
  2114  0AE8  00D0               	movwf	___fttol@f1
  2115  0AE9  0841               	movf	?___ftmul+1,w
  2116  0AEA  00D1               	movwf	___fttol@f1+1
  2117  0AEB  0842               	movf	?___ftmul+2,w
  2118  0AEC  00D2               	movwf	___fttol@f1+2
  2119  0AED  120A  158A  230F  120A  158A  	fcall	___fttol
  2120  0AF2  1283               	bcf	3,5	;RP0=0, select bank0
  2121  0AF3  1303               	bcf	3,6	;RP1=0, select bank0
  2122  0AF4  0851               	movf	?___fttol+1,w
  2123  0AF5  00DF               	movwf	PWM1_Duty@duty+1
  2124  0AF6  0850               	movf	?___fttol,w
  2125  0AF7  00DE               	movwf	PWM1_Duty@duty
  2126                           
  2127                           ;maincode.c: 50: CCP1X = duty & 2;
  2128  0AF8  1297               	bcf	23,5	;volatile
  2129                           
  2130                           ;maincode.c: 51: CCP1Y = duty & 1;
  2131  0AF9  1C5E               	btfss	PWM1_Duty@duty,0
  2132  0AFA  2AFF               	goto	u2150
  2133  0AFB  1283               	bcf	3,5	;RP0=0, select bank0
  2134  0AFC  1303               	bcf	3,6	;RP1=0, select bank0
  2135  0AFD  1617               	bsf	23,4	;volatile
  2136  0AFE  2B02               	goto	l1612
  2137  0AFF                     u2150:	
  2138  0AFF  1283               	bcf	3,5	;RP0=0, select bank0
  2139  0B00  1303               	bcf	3,6	;RP1=0, select bank0
  2140  0B01  1217               	bcf	23,4	;volatile
  2141  0B02                     l1612:	
  2142                           
  2143                           ;maincode.c: 52: CCPR1L = duty>>2;
  2144  0B02  085F               	movf	PWM1_Duty@duty+1,w
  2145  0B03  00E1               	movwf	??_PWM1_Duty+1
  2146  0B04  085E               	movf	PWM1_Duty@duty,w
  2147  0B05  00E0               	movwf	??_PWM1_Duty
  2148  0B06  1003               	clrc
  2149  0B07  0CE1               	rrf	??_PWM1_Duty+1,f
  2150  0B08  0CE0               	rrf	??_PWM1_Duty,f
  2151  0B09  1003               	clrc
  2152  0B0A  0CE1               	rrf	??_PWM1_Duty+1,f
  2153  0B0B  0CE0               	rrf	??_PWM1_Duty,f
  2154  0B0C  0860               	movf	??_PWM1_Duty,w
  2155  0B0D  0095               	movwf	21	;volatile
  2156  0B0E  0008               	return
  2157  0B0F                     __end_of_PWM1_Duty:	
  2158                           
  2159                           	psect	text9
  2160  089C                     __ptext9:	
  2161 ;; *************** function ___lwtoft *****************
  2162 ;; Defined at:
  2163 ;;		line 28 in file "C:\Program Files (x86)\Microchip\xc8\v1.45\sources\common\lwtoft.c"
  2164 ;; Parameters:    Size  Location     Type
  2165 ;;  c               2    8[COMMON] unsigned int 
  2166 ;; Auto vars:     Size  Location     Type
  2167 ;;		None
  2168 ;; Return value:  Size  Location     Type
  2169 ;;                  3    8[COMMON] float 
  2170 ;; Registers used:
  2171 ;;		wreg, status,2, status,0, pclath, cstack
  2172 ;; Tracked objects:
  2173 ;;		On entry : 0/0
  2174 ;;		On exit  : 0/0
  2175 ;;		Unchanged: 0/0
  2176 ;; Data sizes:     COMMON   BANK0   BANK1   BANK3   BANK2
  2177 ;;      Params:         3       0       0       0       0
  2178 ;;      Locals:         0       0       0       0       0
  2179 ;;      Temps:          1       0       0       0       0
  2180 ;;      Totals:         4       0       0       0       0
  2181 ;;Total ram usage:        4 bytes
  2182 ;; Hardware stack levels used:    1
  2183 ;; Hardware stack levels required when called:    1
  2184 ;; This function calls:
  2185 ;;		___ftpack
  2186 ;; This function is called by:
  2187 ;;		_PWM1_Duty
  2188 ;;		_PWM2_Duty
  2189 ;; This function uses a non-reentrant model
  2190 ;;
  2191                           
  2192                           
  2193                           ;psect for function ___lwtoft
  2194  089C                     ___lwtoft:	
  2195                           
  2196                           ;incstack = 0
  2197                           ; Regs used in ___lwtoft: [wreg+status,2+status,0+pclath+cstack]
  2198  089C  0878               	movf	___lwtoft@c,w
  2199  089D  00F0               	movwf	___ftpack@arg
  2200  089E  0879               	movf	___lwtoft@c+1,w
  2201  089F  00F1               	movwf	___ftpack@arg+1
  2202  08A0  01F2               	clrf	___ftpack@arg+2
  2203  08A1  308E               	movlw	142
  2204  08A2  00FB               	movwf	??___lwtoft
  2205  08A3  087B               	movf	??___lwtoft,w
  2206  08A4  00F3               	movwf	___ftpack@exp
  2207  08A5  01F4               	clrf	___ftpack@sign
  2208  08A6  120A  158A  2236   	fcall	___ftpack
  2209  08A9  0870               	movf	?___ftpack,w
  2210  08AA  00F8               	movwf	?___lwtoft
  2211  08AB  0871               	movf	?___ftpack+1,w
  2212  08AC  00F9               	movwf	?___lwtoft+1
  2213  08AD  0872               	movf	?___ftpack+2,w
  2214  08AE  00FA               	movwf	?___lwtoft+2
  2215  08AF  0008               	return
  2216  08B0                     __end_of___lwtoft:	
  2217                           
  2218                           	psect	text10
  2219  0B0F                     __ptext10:	
  2220 ;; *************** function ___fttol *****************
  2221 ;; Defined at:
  2222 ;;		line 44 in file "C:\Program Files (x86)\Microchip\xc8\v1.45\sources\common\fttol.c"
  2223 ;; Parameters:    Size  Location     Type
  2224 ;;  f1              3   48[BANK0 ] float 
  2225 ;; Auto vars:     Size  Location     Type
  2226 ;;  lval            4   57[BANK0 ] unsigned long 
  2227 ;;  exp1            1   61[BANK0 ] unsigned char 
  2228 ;;  sign1           1   56[BANK0 ] unsigned char 
  2229 ;; Return value:  Size  Location     Type
  2230 ;;                  4   48[BANK0 ] long 
  2231 ;; Registers used:
  2232 ;;		wreg, status,2, status,0
  2233 ;; Tracked objects:
  2234 ;;		On entry : 0/0
  2235 ;;		On exit  : 0/0
  2236 ;;		Unchanged: 0/0
  2237 ;; Data sizes:     COMMON   BANK0   BANK1   BANK3   BANK2
  2238 ;;      Params:         0       4       0       0       0
  2239 ;;      Locals:         0       6       0       0       0
  2240 ;;      Temps:          0       4       0       0       0
  2241 ;;      Totals:         0      14       0       0       0
  2242 ;;Total ram usage:       14 bytes
  2243 ;; Hardware stack levels used:    1
  2244 ;; This function calls:
  2245 ;;		Nothing
  2246 ;; This function is called by:
  2247 ;;		_PWM1_Duty
  2248 ;;		_PWM2_Duty
  2249 ;;		_main
  2250 ;; This function uses a non-reentrant model
  2251 ;;
  2252                           
  2253                           
  2254                           ;psect for function ___fttol
  2255  0B0F                     ___fttol:	
  2256                           
  2257                           ;incstack = 0
  2258                           ; Regs used in ___fttol: [wreg+status,2+status,0]
  2259  0B0F  1283               	bcf	3,5	;RP0=0, select bank0
  2260  0B10  1303               	bcf	3,6	;RP1=0, select bank0
  2261  0B11  0850               	movf	___fttol@f1,w
  2262  0B12  00D4               	movwf	??___fttol
  2263  0B13  0851               	movf	___fttol@f1+1,w
  2264  0B14  00D5               	movwf	??___fttol+1
  2265  0B15  0852               	movf	___fttol@f1+2,w
  2266  0B16  00D6               	movwf	??___fttol+2
  2267  0B17  1003               	clrc
  2268  0B18  0D55               	rlf	??___fttol+1,w
  2269  0B19  0D56               	rlf	??___fttol+2,w
  2270  0B1A  00D7               	movwf	??___fttol+3
  2271  0B1B  0857               	movf	??___fttol+3,w
  2272  0B1C  00DD               	movwf	___fttol@exp1
  2273  0B1D  085D               	movf	___fttol@exp1,w
  2274  0B1E  1D03               	btfss	3,2
  2275  0B1F  2B29               	goto	l1556
  2276  0B20  3000               	movlw	0
  2277  0B21  00D3               	movwf	?___fttol+3
  2278  0B22  3000               	movlw	0
  2279  0B23  00D2               	movwf	?___fttol+2
  2280  0B24  3000               	movlw	0
  2281  0B25  00D1               	movwf	?___fttol+1
  2282  0B26  3000               	movlw	0
  2283  0B27  00D0               	movwf	?___fttol
  2284  0B28  0008               	return
  2285  0B29                     l1556:	
  2286  0B29  0850               	movf	___fttol@f1,w
  2287  0B2A  00D4               	movwf	??___fttol
  2288  0B2B  0851               	movf	___fttol@f1+1,w
  2289  0B2C  00D5               	movwf	??___fttol+1
  2290  0B2D  0852               	movf	___fttol@f1+2,w
  2291  0B2E  00D6               	movwf	??___fttol+2
  2292  0B2F  3017               	movlw	23
  2293  0B30                     u2025:	
  2294  0B30  1003               	clrc
  2295  0B31  0CD6               	rrf	??___fttol+2,f
  2296  0B32  0CD5               	rrf	??___fttol+1,f
  2297  0B33  0CD4               	rrf	??___fttol,f
  2298  0B34  3EFF               	addlw	-1
  2299  0B35  1D03               	skipz
  2300  0B36  2B30               	goto	u2025
  2301  0B37  0854               	movf	??___fttol,w
  2302  0B38  00D7               	movwf	??___fttol+3
  2303  0B39  0857               	movf	??___fttol+3,w
  2304  0B3A  00D8               	movwf	___fttol@sign1
  2305  0B3B  17D1               	bsf	___fttol@f1+1,7
  2306  0B3C  30FF               	movlw	255
  2307  0B3D  05D0               	andwf	___fttol@f1,f
  2308  0B3E  30FF               	movlw	255
  2309  0B3F  05D1               	andwf	___fttol@f1+1,f
  2310  0B40  3000               	movlw	0
  2311  0B41  05D2               	andwf	___fttol@f1+2,f
  2312  0B42  0850               	movf	___fttol@f1,w
  2313  0B43  00D9               	movwf	___fttol@lval
  2314  0B44  0851               	movf	___fttol@f1+1,w
  2315  0B45  00DA               	movwf	___fttol@lval+1
  2316  0B46  0852               	movf	___fttol@f1+2,w
  2317  0B47  00DB               	movwf	___fttol@lval+2
  2318  0B48  01DC               	clrf	___fttol@lval+3
  2319  0B49  308E               	movlw	142
  2320  0B4A  02DD               	subwf	___fttol@exp1,f
  2321  0B4B  1FDD               	btfss	___fttol@exp1,7
  2322  0B4C  2B6B               	goto	l1576
  2323  0B4D  085D               	movf	___fttol@exp1,w
  2324  0B4E  3A80               	xorlw	128
  2325  0B4F  3E8F               	addlw	143
  2326  0B50  1803               	skipnc
  2327  0B51  2B5B               	goto	l1574
  2328  0B52  3000               	movlw	0
  2329  0B53  00D3               	movwf	?___fttol+3
  2330  0B54  3000               	movlw	0
  2331  0B55  00D2               	movwf	?___fttol+2
  2332  0B56  3000               	movlw	0
  2333  0B57  00D1               	movwf	?___fttol+1
  2334  0B58  3000               	movlw	0
  2335  0B59  00D0               	movwf	?___fttol
  2336  0B5A  0008               	return
  2337  0B5B                     l1574:	
  2338  0B5B  3001               	movlw	1
  2339  0B5C                     u2055:	
  2340  0B5C  1003               	clrc
  2341  0B5D  0CDC               	rrf	___fttol@lval+3,f
  2342  0B5E  0CDB               	rrf	___fttol@lval+2,f
  2343  0B5F  0CDA               	rrf	___fttol@lval+1,f
  2344  0B60  0CD9               	rrf	___fttol@lval,f
  2345  0B61  3EFF               	addlw	-1
  2346  0B62  1D03               	skipz
  2347  0B63  2B5C               	goto	u2055
  2348  0B64  3001               	movlw	1
  2349  0B65  00D4               	movwf	??___fttol
  2350  0B66  0854               	movf	??___fttol,w
  2351  0B67  07DD               	addwf	___fttol@exp1,f
  2352  0B68  1903               	btfsc	3,2
  2353  0B69  2B86               	goto	l1584
  2354  0B6A  2B5B               	goto	l1574
  2355  0B6B                     l1576:	
  2356  0B6B  3018               	movlw	24
  2357  0B6C  025D               	subwf	___fttol@exp1,w
  2358  0B6D  1C03               	skipc
  2359  0B6E  2B83               	goto	l484
  2360  0B6F  3000               	movlw	0
  2361  0B70  00D3               	movwf	?___fttol+3
  2362  0B71  3000               	movlw	0
  2363  0B72  00D2               	movwf	?___fttol+2
  2364  0B73  3000               	movlw	0
  2365  0B74  00D1               	movwf	?___fttol+1
  2366  0B75  3000               	movlw	0
  2367  0B76  00D0               	movwf	?___fttol
  2368  0B77  0008               	return
  2369  0B78                     l1582:	
  2370  0B78  3001               	movlw	1
  2371  0B79  00D4               	movwf	??___fttol
  2372  0B7A                     u2085:	
  2373  0B7A  1003               	clrc
  2374  0B7B  0DD9               	rlf	___fttol@lval,f
  2375  0B7C  0DDA               	rlf	___fttol@lval+1,f
  2376  0B7D  0DDB               	rlf	___fttol@lval+2,f
  2377  0B7E  0DDC               	rlf	___fttol@lval+3,f
  2378  0B7F  0BD4               	decfsz	??___fttol,f
  2379  0B80  2B7A               	goto	u2085
  2380  0B81  3001               	movlw	1
  2381  0B82  02DD               	subwf	___fttol@exp1,f
  2382  0B83                     l484:	
  2383  0B83  085D               	movf	___fttol@exp1,w
  2384  0B84  1D03               	btfss	3,2
  2385  0B85  2B78               	goto	l1582
  2386  0B86                     l1584:	
  2387  0B86  0858               	movf	___fttol@sign1,w
  2388  0B87  1903               	btfsc	3,2
  2389  0B88  2B94               	goto	l1588
  2390  0B89  09D9               	comf	___fttol@lval,f
  2391  0B8A  09DA               	comf	___fttol@lval+1,f
  2392  0B8B  09DB               	comf	___fttol@lval+2,f
  2393  0B8C  09DC               	comf	___fttol@lval+3,f
  2394  0B8D  0AD9               	incf	___fttol@lval,f
  2395  0B8E  1903               	skipnz
  2396  0B8F  0ADA               	incf	___fttol@lval+1,f
  2397  0B90  1903               	skipnz
  2398  0B91  0ADB               	incf	___fttol@lval+2,f
  2399  0B92  1903               	skipnz
  2400  0B93  0ADC               	incf	___fttol@lval+3,f
  2401  0B94                     l1588:	
  2402  0B94  085C               	movf	___fttol@lval+3,w
  2403  0B95  00D3               	movwf	?___fttol+3
  2404  0B96  085B               	movf	___fttol@lval+2,w
  2405  0B97  00D2               	movwf	?___fttol+2
  2406  0B98  085A               	movf	___fttol@lval+1,w
  2407  0B99  00D1               	movwf	?___fttol+1
  2408  0B9A  0859               	movf	___fttol@lval,w
  2409  0B9B  00D0               	movwf	?___fttol
  2410  0B9C  0008               	return
  2411  0B9D                     __end_of___fttol:	
  2412                           
  2413                           	psect	text11
  2414  0080                     __ptext11:	
  2415 ;; *************** function ___ftmul *****************
  2416 ;; Defined at:
  2417 ;;		line 62 in file "C:\Program Files (x86)\Microchip\xc8\v1.45\sources\common\ftmul.c"
  2418 ;; Parameters:    Size  Location     Type
  2419 ;;  f1              3   32[BANK0 ] float 
  2420 ;;  f2              3   35[BANK0 ] float 
  2421 ;; Auto vars:     Size  Location     Type
  2422 ;;  f3_as_produc    3   43[BANK0 ] unsigned um
  2423 ;;  sign            1   47[BANK0 ] unsigned char 
  2424 ;;  cntr            1   46[BANK0 ] unsigned char 
  2425 ;;  exp             1   42[BANK0 ] unsigned char 
  2426 ;; Return value:  Size  Location     Type
  2427 ;;                  3   32[BANK0 ] float 
  2428 ;; Registers used:
  2429 ;;		wreg, status,2, status,0, pclath, cstack
  2430 ;; Tracked objects:
  2431 ;;		On entry : 0/0
  2432 ;;		On exit  : 0/0
  2433 ;;		Unchanged: 0/0
  2434 ;; Data sizes:     COMMON   BANK0   BANK1   BANK3   BANK2
  2435 ;;      Params:         0       6       0       0       0
  2436 ;;      Locals:         0       6       0       0       0
  2437 ;;      Temps:          0       4       0       0       0
  2438 ;;      Totals:         0      16       0       0       0
  2439 ;;Total ram usage:       16 bytes
  2440 ;; Hardware stack levels used:    1
  2441 ;; Hardware stack levels required when called:    1
  2442 ;; This function calls:
  2443 ;;		___ftpack
  2444 ;; This function is called by:
  2445 ;;		_PWM1_Duty
  2446 ;;		_PWM2_Duty
  2447 ;;		_main
  2448 ;; This function uses a non-reentrant model
  2449 ;;
  2450                           
  2451                           
  2452                           ;psect for function ___ftmul
  2453  0080                     ___ftmul:	
  2454                           
  2455                           ;incstack = 0
  2456                           ; Regs used in ___ftmul: [wreg+status,2+status,0+pclath+cstack]
  2457  0080  1283               	bcf	3,5	;RP0=0, select bank0
  2458  0081  1303               	bcf	3,6	;RP1=0, select bank0
  2459  0082  0840               	movf	___ftmul@f1,w
  2460  0083  00C6               	movwf	??___ftmul
  2461  0084  0841               	movf	___ftmul@f1+1,w
  2462  0085  00C7               	movwf	??___ftmul+1
  2463  0086  0842               	movf	___ftmul@f1+2,w
  2464  0087  00C8               	movwf	??___ftmul+2
  2465  0088  1003               	clrc
  2466  0089  0D47               	rlf	??___ftmul+1,w
  2467  008A  0D48               	rlf	??___ftmul+2,w
  2468  008B  00C9               	movwf	??___ftmul+3
  2469  008C  0849               	movf	??___ftmul+3,w
  2470  008D  00CA               	movwf	___ftmul@exp
  2471  008E  084A               	movf	___ftmul@exp,w
  2472  008F  1D03               	btfss	3,2
  2473  0090  2898               	goto	l1506
  2474  0091  3000               	movlw	0
  2475  0092  00C0               	movwf	?___ftmul
  2476  0093  3000               	movlw	0
  2477  0094  00C1               	movwf	?___ftmul+1
  2478  0095  3000               	movlw	0
  2479  0096  00C2               	movwf	?___ftmul+2
  2480  0097  0008               	return
  2481  0098                     l1506:	
  2482  0098  0843               	movf	___ftmul@f2,w
  2483  0099  00C6               	movwf	??___ftmul
  2484  009A  0844               	movf	___ftmul@f2+1,w
  2485  009B  00C7               	movwf	??___ftmul+1
  2486  009C  0845               	movf	___ftmul@f2+2,w
  2487  009D  00C8               	movwf	??___ftmul+2
  2488  009E  1003               	clrc
  2489  009F  0D47               	rlf	??___ftmul+1,w
  2490  00A0  0D48               	rlf	??___ftmul+2,w
  2491  00A1  00C9               	movwf	??___ftmul+3
  2492  00A2  0849               	movf	??___ftmul+3,w
  2493  00A3  00CF               	movwf	___ftmul@sign
  2494  00A4  084F               	movf	___ftmul@sign,w
  2495  00A5  1D03               	btfss	3,2
  2496  00A6  28AE               	goto	l1512
  2497  00A7  3000               	movlw	0
  2498  00A8  00C0               	movwf	?___ftmul
  2499  00A9  3000               	movlw	0
  2500  00AA  00C1               	movwf	?___ftmul+1
  2501  00AB  3000               	movlw	0
  2502  00AC  00C2               	movwf	?___ftmul+2
  2503  00AD  0008               	return
  2504  00AE                     l1512:	
  2505  00AE  084F               	movf	___ftmul@sign,w
  2506  00AF  3E7B               	addlw	123
  2507  00B0  00C6               	movwf	??___ftmul
  2508  00B1  0846               	movf	??___ftmul,w
  2509  00B2  07CA               	addwf	___ftmul@exp,f
  2510  00B3  0840               	movf	___ftmul@f1,w
  2511  00B4  00C6               	movwf	??___ftmul
  2512  00B5  0841               	movf	___ftmul@f1+1,w
  2513  00B6  00C7               	movwf	??___ftmul+1
  2514  00B7  0842               	movf	___ftmul@f1+2,w
  2515  00B8  00C8               	movwf	??___ftmul+2
  2516  00B9  3010               	movlw	16
  2517  00BA                     u1895:	
  2518  00BA  1003               	clrc
  2519  00BB  0CC8               	rrf	??___ftmul+2,f
  2520  00BC  0CC7               	rrf	??___ftmul+1,f
  2521  00BD  0CC6               	rrf	??___ftmul,f
  2522  00BE  3EFF               	addlw	-1
  2523  00BF  1D03               	skipz
  2524  00C0  28BA               	goto	u1895
  2525  00C1  0846               	movf	??___ftmul,w
  2526  00C2  00C9               	movwf	??___ftmul+3
  2527  00C3  0849               	movf	??___ftmul+3,w
  2528  00C4  00CF               	movwf	___ftmul@sign
  2529  00C5  0843               	movf	___ftmul@f2,w
  2530  00C6  00C6               	movwf	??___ftmul
  2531  00C7  0844               	movf	___ftmul@f2+1,w
  2532  00C8  00C7               	movwf	??___ftmul+1
  2533  00C9  0845               	movf	___ftmul@f2+2,w
  2534  00CA  00C8               	movwf	??___ftmul+2
  2535  00CB  3010               	movlw	16
  2536  00CC                     u1905:	
  2537  00CC  1003               	clrc
  2538  00CD  0CC8               	rrf	??___ftmul+2,f
  2539  00CE  0CC7               	rrf	??___ftmul+1,f
  2540  00CF  0CC6               	rrf	??___ftmul,f
  2541  00D0  3EFF               	addlw	-1
  2542  00D1  1D03               	skipz
  2543  00D2  28CC               	goto	u1905
  2544  00D3  0846               	movf	??___ftmul,w
  2545  00D4  00C9               	movwf	??___ftmul+3
  2546  00D5  0849               	movf	??___ftmul+3,w
  2547  00D6  06CF               	xorwf	___ftmul@sign,f
  2548  00D7  3080               	movlw	128
  2549  00D8  00C6               	movwf	??___ftmul
  2550  00D9  0846               	movf	??___ftmul,w
  2551  00DA  05CF               	andwf	___ftmul@sign,f
  2552  00DB  17C1               	bsf	___ftmul@f1+1,7
  2553  00DC  17C4               	bsf	___ftmul@f2+1,7
  2554  00DD  30FF               	movlw	255
  2555  00DE  05C3               	andwf	___ftmul@f2,f
  2556  00DF  30FF               	movlw	255
  2557  00E0  05C4               	andwf	___ftmul@f2+1,f
  2558  00E1  3000               	movlw	0
  2559  00E2  05C5               	andwf	___ftmul@f2+2,f
  2560  00E3  3000               	movlw	0
  2561  00E4  00CB               	movwf	___ftmul@f3_as_product
  2562  00E5  3000               	movlw	0
  2563  00E6  00CC               	movwf	___ftmul@f3_as_product+1
  2564  00E7  3000               	movlw	0
  2565  00E8  00CD               	movwf	___ftmul@f3_as_product+2
  2566  00E9  3007               	movlw	7
  2567  00EA  00C6               	movwf	??___ftmul
  2568  00EB  0846               	movf	??___ftmul,w
  2569  00EC  00CE               	movwf	___ftmul@cntr
  2570  00ED                     l1524:	
  2571  00ED  1C40               	btfss	___ftmul@f1,0
  2572  00EE  28FD               	goto	l1528
  2573  00EF  0843               	movf	___ftmul@f2,w
  2574  00F0  07CB               	addwf	___ftmul@f3_as_product,f
  2575  00F1  0844               	movf	___ftmul@f2+1,w
  2576  00F2  1103               	clrz
  2577  00F3  1803               	skipnc
  2578  00F4  0A44               	incf	___ftmul@f2+1,w
  2579  00F5  1D03               	btfss	3,2
  2580  00F6  07CC               	addwf	___ftmul@f3_as_product+1,f
  2581  00F7  0845               	movf	___ftmul@f2+2,w
  2582  00F8  1103               	clrz
  2583  00F9  1803               	skipnc
  2584  00FA  0A45               	incf	___ftmul@f2+2,w
  2585  00FB  1D03               	btfss	3,2
  2586  00FC  07CD               	addwf	___ftmul@f3_as_product+2,f
  2587  00FD                     l1528:	
  2588  00FD  3001               	movlw	1
  2589  00FE                     u1935:	
  2590  00FE  1003               	clrc
  2591  00FF  0CC2               	rrf	___ftmul@f1+2,f
  2592  0100  0CC1               	rrf	___ftmul@f1+1,f
  2593  0101  0CC0               	rrf	___ftmul@f1,f
  2594  0102  3EFF               	addlw	-1
  2595  0103  1D03               	skipz
  2596  0104  28FE               	goto	u1935
  2597  0105  3001               	movlw	1
  2598  0106                     u1945:	
  2599  0106  1003               	clrc
  2600  0107  0DC3               	rlf	___ftmul@f2,f
  2601  0108  0DC4               	rlf	___ftmul@f2+1,f
  2602  0109  0DC5               	rlf	___ftmul@f2+2,f
  2603  010A  3EFF               	addlw	-1
  2604  010B  1D03               	skipz
  2605  010C  2906               	goto	u1945
  2606  010D  3001               	movlw	1
  2607  010E  02CE               	subwf	___ftmul@cntr,f
  2608  010F  1D03               	btfss	3,2
  2609  0110  28ED               	goto	l1524
  2610  0111  3009               	movlw	9
  2611  0112  00C6               	movwf	??___ftmul
  2612  0113  0846               	movf	??___ftmul,w
  2613  0114  00CE               	movwf	___ftmul@cntr
  2614  0115                     l1536:	
  2615  0115  1C40               	btfss	___ftmul@f1,0
  2616  0116  2925               	goto	l1540
  2617  0117  0843               	movf	___ftmul@f2,w
  2618  0118  07CB               	addwf	___ftmul@f3_as_product,f
  2619  0119  0844               	movf	___ftmul@f2+1,w
  2620  011A  1103               	clrz
  2621  011B  1803               	skipnc
  2622  011C  0A44               	incf	___ftmul@f2+1,w
  2623  011D  1D03               	btfss	3,2
  2624  011E  07CC               	addwf	___ftmul@f3_as_product+1,f
  2625  011F  0845               	movf	___ftmul@f2+2,w
  2626  0120  1103               	clrz
  2627  0121  1803               	skipnc
  2628  0122  0A45               	incf	___ftmul@f2+2,w
  2629  0123  1D03               	btfss	3,2
  2630  0124  07CD               	addwf	___ftmul@f3_as_product+2,f
  2631  0125                     l1540:	
  2632  0125  3001               	movlw	1
  2633  0126                     u1985:	
  2634  0126  1003               	clrc
  2635  0127  0CC2               	rrf	___ftmul@f1+2,f
  2636  0128  0CC1               	rrf	___ftmul@f1+1,f
  2637  0129  0CC0               	rrf	___ftmul@f1,f
  2638  012A  3EFF               	addlw	-1
  2639  012B  1D03               	skipz
  2640  012C  2926               	goto	u1985
  2641  012D  3001               	movlw	1
  2642  012E                     u1995:	
  2643  012E  1003               	clrc
  2644  012F  0CCD               	rrf	___ftmul@f3_as_product+2,f
  2645  0130  0CCC               	rrf	___ftmul@f3_as_product+1,f
  2646  0131  0CCB               	rrf	___ftmul@f3_as_product,f
  2647  0132  3EFF               	addlw	-1
  2648  0133  1D03               	skipz
  2649  0134  292E               	goto	u1995
  2650  0135  3001               	movlw	1
  2651  0136  02CE               	subwf	___ftmul@cntr,f
  2652  0137  1D03               	btfss	3,2
  2653  0138  2915               	goto	l1536
  2654  0139  084B               	movf	___ftmul@f3_as_product,w
  2655  013A  00F0               	movwf	___ftpack@arg
  2656  013B  084C               	movf	___ftmul@f3_as_product+1,w
  2657  013C  00F1               	movwf	___ftpack@arg+1
  2658  013D  084D               	movf	___ftmul@f3_as_product+2,w
  2659  013E  00F2               	movwf	___ftpack@arg+2
  2660  013F  084A               	movf	___ftmul@exp,w
  2661  0140  00C6               	movwf	??___ftmul
  2662  0141  0846               	movf	??___ftmul,w
  2663  0142  00F3               	movwf	___ftpack@exp
  2664  0143  084F               	movf	___ftmul@sign,w
  2665  0144  00C7               	movwf	??___ftmul+1
  2666  0145  0847               	movf	??___ftmul+1,w
  2667  0146  00F4               	movwf	___ftpack@sign
  2668  0147  120A  158A  2236   	fcall	___ftpack
  2669  014A  0870               	movf	?___ftpack,w
  2670  014B  1283               	bcf	3,5	;RP0=0, select bank0
  2671  014C  1303               	bcf	3,6	;RP1=0, select bank0
  2672  014D  00C0               	movwf	?___ftmul
  2673  014E  0871               	movf	?___ftpack+1,w
  2674  014F  00C1               	movwf	?___ftmul+1
  2675  0150  0872               	movf	?___ftpack+2,w
  2676  0151  00C2               	movwf	?___ftmul+2
  2677  0152  0008               	return
  2678  0153                     __end_of___ftmul:	
  2679                           
  2680                           	psect	text12
  2681  0CC2                     __ptext12:	
  2682 ;; *************** function ___ftdiv *****************
  2683 ;; Defined at:
  2684 ;;		line 56 in file "C:\Program Files (x86)\Microchip\xc8\v1.45\sources\common\ftdiv.c"
  2685 ;; Parameters:    Size  Location     Type
  2686 ;;  f2              3    0[BANK0 ] float 
  2687 ;;  f1              3    3[BANK0 ] float 
  2688 ;; Auto vars:     Size  Location     Type
  2689 ;;  f3              3   11[BANK0 ] float 
  2690 ;;  sign            1   15[BANK0 ] unsigned char 
  2691 ;;  exp             1   14[BANK0 ] unsigned char 
  2692 ;;  cntr            1   10[BANK0 ] unsigned char 
  2693 ;; Return value:  Size  Location     Type
  2694 ;;                  3    0[BANK0 ] float 
  2695 ;; Registers used:
  2696 ;;		wreg, status,2, status,0, pclath, cstack
  2697 ;; Tracked objects:
  2698 ;;		On entry : 0/0
  2699 ;;		On exit  : 0/0
  2700 ;;		Unchanged: 0/0
  2701 ;; Data sizes:     COMMON   BANK0   BANK1   BANK3   BANK2
  2702 ;;      Params:         0       6       0       0       0
  2703 ;;      Locals:         0       6       0       0       0
  2704 ;;      Temps:          0       4       0       0       0
  2705 ;;      Totals:         0      16       0       0       0
  2706 ;;Total ram usage:       16 bytes
  2707 ;; Hardware stack levels used:    1
  2708 ;; Hardware stack levels required when called:    1
  2709 ;; This function calls:
  2710 ;;		___ftpack
  2711 ;; This function is called by:
  2712 ;;		_PWM1_Duty
  2713 ;;		_PWM2_Duty
  2714 ;;		_main
  2715 ;; This function uses a non-reentrant model
  2716 ;;
  2717                           
  2718                           
  2719                           ;psect for function ___ftdiv
  2720  0CC2                     ___ftdiv:	
  2721                           
  2722                           ;incstack = 0
  2723                           ; Regs used in ___ftdiv: [wreg+status,2+status,0+pclath+cstack]
  2724  0CC2  1283               	bcf	3,5	;RP0=0, select bank0
  2725  0CC3  1303               	bcf	3,6	;RP1=0, select bank0
  2726  0CC4  0823               	movf	___ftdiv@f1,w
  2727  0CC5  00A6               	movwf	??___ftdiv
  2728  0CC6  0824               	movf	___ftdiv@f1+1,w
  2729  0CC7  00A7               	movwf	??___ftdiv+1
  2730  0CC8  0825               	movf	___ftdiv@f1+2,w
  2731  0CC9  00A8               	movwf	??___ftdiv+2
  2732  0CCA  1003               	clrc
  2733  0CCB  0D27               	rlf	??___ftdiv+1,w
  2734  0CCC  0D28               	rlf	??___ftdiv+2,w
  2735  0CCD  00A9               	movwf	??___ftdiv+3
  2736  0CCE  0829               	movf	??___ftdiv+3,w
  2737  0CCF  00AE               	movwf	___ftdiv@exp
  2738  0CD0  082E               	movf	___ftdiv@exp,w
  2739  0CD1  1D03               	btfss	3,2
  2740  0CD2  2CDA               	goto	l1464
  2741  0CD3  3000               	movlw	0
  2742  0CD4  00A0               	movwf	?___ftdiv
  2743  0CD5  3000               	movlw	0
  2744  0CD6  00A1               	movwf	?___ftdiv+1
  2745  0CD7  3000               	movlw	0
  2746  0CD8  00A2               	movwf	?___ftdiv+2
  2747  0CD9  0008               	return
  2748  0CDA                     l1464:	
  2749  0CDA  0820               	movf	___ftdiv@f2,w
  2750  0CDB  00A6               	movwf	??___ftdiv
  2751  0CDC  0821               	movf	___ftdiv@f2+1,w
  2752  0CDD  00A7               	movwf	??___ftdiv+1
  2753  0CDE  0822               	movf	___ftdiv@f2+2,w
  2754  0CDF  00A8               	movwf	??___ftdiv+2
  2755  0CE0  1003               	clrc
  2756  0CE1  0D27               	rlf	??___ftdiv+1,w
  2757  0CE2  0D28               	rlf	??___ftdiv+2,w
  2758  0CE3  00A9               	movwf	??___ftdiv+3
  2759  0CE4  0829               	movf	??___ftdiv+3,w
  2760  0CE5  00AF               	movwf	___ftdiv@sign
  2761  0CE6  082F               	movf	___ftdiv@sign,w
  2762  0CE7  1D03               	btfss	3,2
  2763  0CE8  2CF0               	goto	l1470
  2764  0CE9  3000               	movlw	0
  2765  0CEA  00A0               	movwf	?___ftdiv
  2766  0CEB  3000               	movlw	0
  2767  0CEC  00A1               	movwf	?___ftdiv+1
  2768  0CED  3000               	movlw	0
  2769  0CEE  00A2               	movwf	?___ftdiv+2
  2770  0CEF  0008               	return
  2771  0CF0                     l1470:	
  2772  0CF0  3000               	movlw	0
  2773  0CF1  00AB               	movwf	___ftdiv@f3
  2774  0CF2  3000               	movlw	0
  2775  0CF3  00AC               	movwf	___ftdiv@f3+1
  2776  0CF4  3000               	movlw	0
  2777  0CF5  00AD               	movwf	___ftdiv@f3+2
  2778  0CF6  3089               	movlw	137
  2779  0CF7  072F               	addwf	___ftdiv@sign,w
  2780  0CF8  00A6               	movwf	??___ftdiv
  2781  0CF9  0826               	movf	??___ftdiv,w
  2782  0CFA  02AE               	subwf	___ftdiv@exp,f
  2783  0CFB  0823               	movf	___ftdiv@f1,w
  2784  0CFC  00A6               	movwf	??___ftdiv
  2785  0CFD  0824               	movf	___ftdiv@f1+1,w
  2786  0CFE  00A7               	movwf	??___ftdiv+1
  2787  0CFF  0825               	movf	___ftdiv@f1+2,w
  2788  0D00  00A8               	movwf	??___ftdiv+2
  2789  0D01  3010               	movlw	16
  2790  0D02                     u1815:	
  2791  0D02  1003               	clrc
  2792  0D03  0CA8               	rrf	??___ftdiv+2,f
  2793  0D04  0CA7               	rrf	??___ftdiv+1,f
  2794  0D05  0CA6               	rrf	??___ftdiv,f
  2795  0D06  3EFF               	addlw	-1
  2796  0D07  1D03               	skipz
  2797  0D08  2D02               	goto	u1815
  2798  0D09  0826               	movf	??___ftdiv,w
  2799  0D0A  00A9               	movwf	??___ftdiv+3
  2800  0D0B  0829               	movf	??___ftdiv+3,w
  2801  0D0C  00AF               	movwf	___ftdiv@sign
  2802  0D0D  0820               	movf	___ftdiv@f2,w
  2803  0D0E  00A6               	movwf	??___ftdiv
  2804  0D0F  0821               	movf	___ftdiv@f2+1,w
  2805  0D10  00A7               	movwf	??___ftdiv+1
  2806  0D11  0822               	movf	___ftdiv@f2+2,w
  2807  0D12  00A8               	movwf	??___ftdiv+2
  2808  0D13  3010               	movlw	16
  2809  0D14                     u1825:	
  2810  0D14  1003               	clrc
  2811  0D15  0CA8               	rrf	??___ftdiv+2,f
  2812  0D16  0CA7               	rrf	??___ftdiv+1,f
  2813  0D17  0CA6               	rrf	??___ftdiv,f
  2814  0D18  3EFF               	addlw	-1
  2815  0D19  1D03               	skipz
  2816  0D1A  2D14               	goto	u1825
  2817  0D1B  0826               	movf	??___ftdiv,w
  2818  0D1C  00A9               	movwf	??___ftdiv+3
  2819  0D1D  0829               	movf	??___ftdiv+3,w
  2820  0D1E  06AF               	xorwf	___ftdiv@sign,f
  2821  0D1F  3080               	movlw	128
  2822  0D20  00A6               	movwf	??___ftdiv
  2823  0D21  0826               	movf	??___ftdiv,w
  2824  0D22  05AF               	andwf	___ftdiv@sign,f
  2825  0D23  17A4               	bsf	___ftdiv@f1+1,7
  2826  0D24  30FF               	movlw	255
  2827  0D25  05A3               	andwf	___ftdiv@f1,f
  2828  0D26  30FF               	movlw	255
  2829  0D27  05A4               	andwf	___ftdiv@f1+1,f
  2830  0D28  3000               	movlw	0
  2831  0D29  05A5               	andwf	___ftdiv@f1+2,f
  2832  0D2A  17A1               	bsf	___ftdiv@f2+1,7
  2833  0D2B  30FF               	movlw	255
  2834  0D2C  05A0               	andwf	___ftdiv@f2,f
  2835  0D2D  30FF               	movlw	255
  2836  0D2E  05A1               	andwf	___ftdiv@f2+1,f
  2837  0D2F  3000               	movlw	0
  2838  0D30  05A2               	andwf	___ftdiv@f2+2,f
  2839  0D31  3018               	movlw	24
  2840  0D32  00A6               	movwf	??___ftdiv
  2841  0D33  0826               	movf	??___ftdiv,w
  2842  0D34  00AA               	movwf	___ftdiv@cntr
  2843  0D35                     l1484:	
  2844  0D35  3001               	movlw	1
  2845  0D36                     u1835:	
  2846  0D36  1003               	clrc
  2847  0D37  0DAB               	rlf	___ftdiv@f3,f
  2848  0D38  0DAC               	rlf	___ftdiv@f3+1,f
  2849  0D39  0DAD               	rlf	___ftdiv@f3+2,f
  2850  0D3A  3EFF               	addlw	-1
  2851  0D3B  1D03               	skipz
  2852  0D3C  2D36               	goto	u1835
  2853  0D3D  0822               	movf	___ftdiv@f2+2,w
  2854  0D3E  0225               	subwf	___ftdiv@f1+2,w
  2855  0D3F  1D03               	skipz
  2856  0D40  2D47               	goto	u1845
  2857  0D41  0821               	movf	___ftdiv@f2+1,w
  2858  0D42  0224               	subwf	___ftdiv@f1+1,w
  2859  0D43  1D03               	skipz
  2860  0D44  2D47               	goto	u1845
  2861  0D45  0820               	movf	___ftdiv@f2,w
  2862  0D46  0223               	subwf	___ftdiv@f1,w
  2863  0D47                     u1845:	
  2864  0D47  1C03               	skipc
  2865  0D48  2D54               	goto	l1492
  2866  0D49  0820               	movf	___ftdiv@f2,w
  2867  0D4A  02A3               	subwf	___ftdiv@f1,f
  2868  0D4B  0821               	movf	___ftdiv@f2+1,w
  2869  0D4C  1C03               	skipc
  2870  0D4D  0F21               	incfsz	___ftdiv@f2+1,w
  2871  0D4E  02A4               	subwf	___ftdiv@f1+1,f
  2872  0D4F  0822               	movf	___ftdiv@f2+2,w
  2873  0D50  1C03               	skipc
  2874  0D51  0A22               	incf	___ftdiv@f2+2,w
  2875  0D52  02A5               	subwf	___ftdiv@f1+2,f
  2876  0D53  142B               	bsf	___ftdiv@f3,0
  2877  0D54                     l1492:	
  2878  0D54  3001               	movlw	1
  2879  0D55                     u1855:	
  2880  0D55  1003               	clrc
  2881  0D56  0DA3               	rlf	___ftdiv@f1,f
  2882  0D57  0DA4               	rlf	___ftdiv@f1+1,f
  2883  0D58  0DA5               	rlf	___ftdiv@f1+2,f
  2884  0D59  3EFF               	addlw	-1
  2885  0D5A  1D03               	skipz
  2886  0D5B  2D55               	goto	u1855
  2887  0D5C  3001               	movlw	1
  2888  0D5D  02AA               	subwf	___ftdiv@cntr,f
  2889  0D5E  1D03               	btfss	3,2
  2890  0D5F  2D35               	goto	l1484
  2891  0D60  082B               	movf	___ftdiv@f3,w
  2892  0D61  00F0               	movwf	___ftpack@arg
  2893  0D62  082C               	movf	___ftdiv@f3+1,w
  2894  0D63  00F1               	movwf	___ftpack@arg+1
  2895  0D64  082D               	movf	___ftdiv@f3+2,w
  2896  0D65  00F2               	movwf	___ftpack@arg+2
  2897  0D66  082E               	movf	___ftdiv@exp,w
  2898  0D67  00A6               	movwf	??___ftdiv
  2899  0D68  0826               	movf	??___ftdiv,w
  2900  0D69  00F3               	movwf	___ftpack@exp
  2901  0D6A  082F               	movf	___ftdiv@sign,w
  2902  0D6B  00A7               	movwf	??___ftdiv+1
  2903  0D6C  0827               	movf	??___ftdiv+1,w
  2904  0D6D  00F4               	movwf	___ftpack@sign
  2905  0D6E  120A  158A  2236   	fcall	___ftpack
  2906  0D71  0870               	movf	?___ftpack,w
  2907  0D72  1283               	bcf	3,5	;RP0=0, select bank0
  2908  0D73  1303               	bcf	3,6	;RP1=0, select bank0
  2909  0D74  00A0               	movwf	?___ftdiv
  2910  0D75  0871               	movf	?___ftpack+1,w
  2911  0D76  00A1               	movwf	?___ftdiv+1
  2912  0D77  0872               	movf	?___ftpack+2,w
  2913  0D78  00A2               	movwf	?___ftdiv+2
  2914  0D79  0008               	return
  2915  0D7A                     __end_of___ftdiv:	
  2916                           
  2917                           	psect	text13
  2918  08B0                     __ptext13:	
  2919 ;; *************** function ___awtoft *****************
  2920 ;; Defined at:
  2921 ;;		line 32 in file "C:\Program Files (x86)\Microchip\xc8\v1.45\sources\common\awtoft.c"
  2922 ;; Parameters:    Size  Location     Type
  2923 ;;  c               2    8[BANK0 ] int 
  2924 ;; Auto vars:     Size  Location     Type
  2925 ;;  sign            1   13[COMMON] unsigned char 
  2926 ;; Return value:  Size  Location     Type
  2927 ;;                  3    8[BANK0 ] float 
  2928 ;; Registers used:
  2929 ;;		wreg, status,2, status,0, pclath, cstack
  2930 ;; Tracked objects:
  2931 ;;		On entry : 0/0
  2932 ;;		On exit  : 0/0
  2933 ;;		Unchanged: 0/0
  2934 ;; Data sizes:     COMMON   BANK0   BANK1   BANK3   BANK2
  2935 ;;      Params:         0       3       0       0       0
  2936 ;;      Locals:         1       0       0       0       0
  2937 ;;      Temps:          0       2       0       0       0
  2938 ;;      Totals:         1       5       0       0       0
  2939 ;;Total ram usage:        6 bytes
  2940 ;; Hardware stack levels used:    1
  2941 ;; Hardware stack levels required when called:    1
  2942 ;; This function calls:
  2943 ;;		___ftpack
  2944 ;; This function is called by:
  2945 ;;		_PWM1_Duty
  2946 ;;		_PWM2_Duty
  2947 ;;		_main
  2948 ;; This function uses a non-reentrant model
  2949 ;;
  2950                           
  2951                           
  2952                           ;psect for function ___awtoft
  2953  08B0                     ___awtoft:	
  2954                           
  2955                           ;incstack = 0
  2956                           ; Regs used in ___awtoft: [wreg+status,2+status,0+pclath+cstack]
  2957  08B0  01FD               	clrf	___awtoft@sign
  2958  08B1  1283               	bcf	3,5	;RP0=0, select bank0
  2959  08B2  1303               	bcf	3,6	;RP1=0, select bank0
  2960  08B3  1FA9               	btfss	___awtoft@c+1,7
  2961  08B4  28BC               	goto	l1454
  2962  08B5  09A8               	comf	___awtoft@c,f
  2963  08B6  09A9               	comf	___awtoft@c+1,f
  2964  08B7  0AA8               	incf	___awtoft@c,f
  2965  08B8  1903               	skipnz
  2966  08B9  0AA9               	incf	___awtoft@c+1,f
  2967  08BA  01FD               	clrf	___awtoft@sign
  2968  08BB  0AFD               	incf	___awtoft@sign,f
  2969  08BC                     l1454:	
  2970  08BC  0828               	movf	___awtoft@c,w
  2971  08BD  00F0               	movwf	___ftpack@arg
  2972  08BE  0829               	movf	___awtoft@c+1,w
  2973  08BF  00F1               	movwf	___ftpack@arg+1
  2974  08C0  01F2               	clrf	___ftpack@arg+2
  2975  08C1  308E               	movlw	142
  2976  08C2  00AB               	movwf	??___awtoft
  2977  08C3  082B               	movf	??___awtoft,w
  2978  08C4  00F3               	movwf	___ftpack@exp
  2979  08C5  087D               	movf	___awtoft@sign,w
  2980  08C6  00AC               	movwf	??___awtoft+1
  2981  08C7  082C               	movf	??___awtoft+1,w
  2982  08C8  00F4               	movwf	___ftpack@sign
  2983  08C9  120A  158A  2236   	fcall	___ftpack
  2984  08CC  0870               	movf	?___ftpack,w
  2985  08CD  1283               	bcf	3,5	;RP0=0, select bank0
  2986  08CE  1303               	bcf	3,6	;RP1=0, select bank0
  2987  08CF  00A8               	movwf	?___awtoft
  2988  08D0  0871               	movf	?___ftpack+1,w
  2989  08D1  00A9               	movwf	?___awtoft+1
  2990  08D2  0872               	movf	?___ftpack+2,w
  2991  08D3  00AA               	movwf	?___awtoft+2
  2992  08D4  0008               	return
  2993  08D5                     __end_of___awtoft:	
  2994                           
  2995                           	psect	text14
  2996  0A36                     __ptext14:	
  2997 ;; *************** function ___ftpack *****************
  2998 ;; Defined at:
  2999 ;;		line 62 in file "C:\Program Files (x86)\Microchip\xc8\v1.45\sources\common\float.c"
  3000 ;; Parameters:    Size  Location     Type
  3001 ;;  arg             3    0[COMMON] unsigned um
  3002 ;;  exp             1    3[COMMON] unsigned char 
  3003 ;;  sign            1    4[COMMON] unsigned char 
  3004 ;; Auto vars:     Size  Location     Type
  3005 ;;		None
  3006 ;; Return value:  Size  Location     Type
  3007 ;;                  3    0[COMMON] float 
  3008 ;; Registers used:
  3009 ;;		wreg, status,2, status,0
  3010 ;; Tracked objects:
  3011 ;;		On entry : 0/0
  3012 ;;		On exit  : 0/0
  3013 ;;		Unchanged: 0/0
  3014 ;; Data sizes:     COMMON   BANK0   BANK1   BANK3   BANK2
  3015 ;;      Params:         5       0       0       0       0
  3016 ;;      Locals:         0       0       0       0       0
  3017 ;;      Temps:          3       0       0       0       0
  3018 ;;      Totals:         8       0       0       0       0
  3019 ;;Total ram usage:        8 bytes
  3020 ;; Hardware stack levels used:    1
  3021 ;; This function calls:
  3022 ;;		Nothing
  3023 ;; This function is called by:
  3024 ;;		___awtoft
  3025 ;;		___ftadd
  3026 ;;		___ftdiv
  3027 ;;		___ftmul
  3028 ;;		___lwtoft
  3029 ;; This function uses a non-reentrant model
  3030 ;;
  3031                           
  3032                           
  3033                           ;psect for function ___ftpack
  3034  0A36                     ___ftpack:	
  3035                           
  3036                           ;incstack = 0
  3037                           ; Regs used in ___ftpack: [wreg+status,2+status,0]
  3038  0A36  0873               	movf	___ftpack@exp,w
  3039  0A37  1903               	btfsc	3,2
  3040  0A38  2A3E               	goto	l1374
  3041  0A39  0872               	movf	___ftpack@arg+2,w
  3042  0A3A  0471               	iorwf	___ftpack@arg+1,w
  3043  0A3B  0470               	iorwf	___ftpack@arg,w
  3044  0A3C  1D03               	skipz
  3045  0A3D  2A51               	goto	l1380
  3046  0A3E                     l1374:	
  3047  0A3E  3000               	movlw	0
  3048  0A3F  00F0               	movwf	?___ftpack
  3049  0A40  3000               	movlw	0
  3050  0A41  00F1               	movwf	?___ftpack+1
  3051  0A42  3000               	movlw	0
  3052  0A43  00F2               	movwf	?___ftpack+2
  3053  0A44  0008               	return
  3054  0A45                     l1378:	
  3055  0A45  3001               	movlw	1
  3056  0A46  00F5               	movwf	??___ftpack
  3057  0A47  0875               	movf	??___ftpack,w
  3058  0A48  07F3               	addwf	___ftpack@exp,f
  3059  0A49  3001               	movlw	1
  3060  0A4A                     u1575:	
  3061  0A4A  1003               	clrc
  3062  0A4B  0CF2               	rrf	___ftpack@arg+2,f
  3063  0A4C  0CF1               	rrf	___ftpack@arg+1,f
  3064  0A4D  0CF0               	rrf	___ftpack@arg,f
  3065  0A4E  3EFF               	addlw	-1
  3066  0A4F  1D03               	skipz
  3067  0A50  2A4A               	goto	u1575
  3068  0A51                     l1380:	
  3069  0A51  30FE               	movlw	254
  3070  0A52  0572               	andwf	___ftpack@arg+2,w
  3071  0A53  1903               	btfsc	3,2
  3072  0A54  2A6C               	goto	l393
  3073  0A55  2A45               	goto	l1378
  3074  0A56                     l1382:	
  3075  0A56  3001               	movlw	1
  3076  0A57  00F5               	movwf	??___ftpack
  3077  0A58  0875               	movf	??___ftpack,w
  3078  0A59  07F3               	addwf	___ftpack@exp,f
  3079  0A5A  3001               	movlw	1
  3080  0A5B  07F0               	addwf	___ftpack@arg,f
  3081  0A5C  3000               	movlw	0
  3082  0A5D  1803               	skipnc
  3083  0A5E  3001               	movlw	1
  3084  0A5F  07F1               	addwf	___ftpack@arg+1,f
  3085  0A60  3000               	movlw	0
  3086  0A61  1803               	skipnc
  3087  0A62  3001               	movlw	1
  3088  0A63  07F2               	addwf	___ftpack@arg+2,f
  3089  0A64  3001               	movlw	1
  3090  0A65                     u1595:	
  3091  0A65  1003               	clrc
  3092  0A66  0CF2               	rrf	___ftpack@arg+2,f
  3093  0A67  0CF1               	rrf	___ftpack@arg+1,f
  3094  0A68  0CF0               	rrf	___ftpack@arg,f
  3095  0A69  3EFF               	addlw	-1
  3096  0A6A  1D03               	skipz
  3097  0A6B  2A65               	goto	u1595
  3098  0A6C                     l393:	
  3099  0A6C  30FF               	movlw	255
  3100  0A6D  0572               	andwf	___ftpack@arg+2,w
  3101  0A6E  1903               	btfsc	3,2
  3102  0A6F  2A7B               	goto	l1390
  3103  0A70  2A56               	goto	l1382
  3104  0A71                     l1388:	
  3105  0A71  3001               	movlw	1
  3106  0A72  02F3               	subwf	___ftpack@exp,f
  3107  0A73  3001               	movlw	1
  3108  0A74                     u1615:	
  3109  0A74  1003               	clrc
  3110  0A75  0DF0               	rlf	___ftpack@arg,f
  3111  0A76  0DF1               	rlf	___ftpack@arg+1,f
  3112  0A77  0DF2               	rlf	___ftpack@arg+2,f
  3113  0A78  3EFF               	addlw	-1
  3114  0A79  1D03               	skipz
  3115  0A7A  2A74               	goto	u1615
  3116  0A7B                     l1390:	
  3117  0A7B  1BF1               	btfsc	___ftpack@arg+1,7
  3118  0A7C  2A81               	goto	l400
  3119  0A7D  3002               	movlw	2
  3120  0A7E  0273               	subwf	___ftpack@exp,w
  3121  0A7F  1803               	skipnc
  3122  0A80  2A71               	goto	l1388
  3123  0A81                     l400:	
  3124  0A81  1873               	btfsc	___ftpack@exp,0
  3125  0A82  2A89               	goto	l401
  3126  0A83  30FF               	movlw	255
  3127  0A84  05F0               	andwf	___ftpack@arg,f
  3128  0A85  307F               	movlw	127
  3129  0A86  05F1               	andwf	___ftpack@arg+1,f
  3130  0A87  30FF               	movlw	255
  3131  0A88  05F2               	andwf	___ftpack@arg+2,f
  3132  0A89                     l401:	
  3133  0A89  1003               	clrc
  3134  0A8A  0CF3               	rrf	___ftpack@exp,f
  3135  0A8B  0873               	movf	___ftpack@exp,w
  3136  0A8C  00F5               	movwf	??___ftpack
  3137  0A8D  01F6               	clrf	??___ftpack+1
  3138  0A8E  01F7               	clrf	??___ftpack+2
  3139  0A8F  3010               	movlw	16
  3140  0A90                     u1655:	
  3141  0A90  1003               	clrc
  3142  0A91  0DF5               	rlf	??___ftpack,f
  3143  0A92  0DF6               	rlf	??___ftpack+1,f
  3144  0A93  0DF7               	rlf	??___ftpack+2,f
  3145  0A94  3EFF               	addlw	-1
  3146  0A95  1D03               	skipz
  3147  0A96  2A90               	goto	u1655
  3148  0A97  0875               	movf	??___ftpack,w
  3149  0A98  04F0               	iorwf	___ftpack@arg,f
  3150  0A99  0876               	movf	??___ftpack+1,w
  3151  0A9A  04F1               	iorwf	___ftpack@arg+1,f
  3152  0A9B  0877               	movf	??___ftpack+2,w
  3153  0A9C  04F2               	iorwf	___ftpack@arg+2,f
  3154  0A9D  0874               	movf	___ftpack@sign,w
  3155  0A9E  1903               	btfsc	3,2
  3156  0A9F  0008               	return
  3157  0AA0  17F2               	bsf	___ftpack@arg+2,7
  3158  0AA1  0008               	return
  3159  0AA2                     __end_of___ftpack:	
  3160                           
  3161                           	psect	text15
  3162  08D5                     __ptext15:	
  3163 ;; *************** function _PWM_Max_Duty *****************
  3164 ;; Defined at:
  3165 ;;		line 31 in file "maincode.c"
  3166 ;; Parameters:    Size  Location     Type
  3167 ;;		None
  3168 ;; Auto vars:     Size  Location     Type
  3169 ;;		None
  3170 ;; Return value:  Size  Location     Type
  3171 ;;                  2    6[BANK0 ] int 
  3172 ;; Registers used:
  3173 ;;		wreg, status,2, status,0, pclath, cstack
  3174 ;; Tracked objects:
  3175 ;;		On entry : 0/0
  3176 ;;		On exit  : 0/0
  3177 ;;		Unchanged: 0/0
  3178 ;; Data sizes:     COMMON   BANK0   BANK1   BANK3   BANK2
  3179 ;;      Params:         0       2       0       0       0
  3180 ;;      Locals:         0       0       0       0       0
  3181 ;;      Temps:          4       0       0       0       0
  3182 ;;      Totals:         4       2       0       0       0
  3183 ;;Total ram usage:        6 bytes
  3184 ;; Hardware stack levels used:    1
  3185 ;; Hardware stack levels required when called:    1
  3186 ;; This function calls:
  3187 ;;		___aldiv
  3188 ;; This function is called by:
  3189 ;;		_PWM1_Duty
  3190 ;;		_PWM2_Duty
  3191 ;; This function uses a non-reentrant model
  3192 ;;
  3193                           
  3194                           
  3195                           ;psect for function _PWM_Max_Duty
  3196  08D5                     _PWM_Max_Duty:	
  3197                           
  3198                           ;maincode.c: 33: return(16000000/(freq*4));
  3199                           
  3200                           ;incstack = 0
  3201                           ; Regs used in _PWM_Max_Duty: [wreg+status,2+status,0+pclath+cstack]
  3202  08D5  1283               	bcf	3,5	;RP0=0, select bank0
  3203  08D6  1303               	bcf	3,6	;RP1=0, select bank0
  3204  08D7  0864               	movf	_freq,w
  3205  08D8  00F9               	movwf	??_PWM_Max_Duty
  3206  08D9  0865               	movf	_freq+1,w
  3207  08DA  00FA               	movwf	??_PWM_Max_Duty+1
  3208  08DB  0866               	movf	_freq+2,w
  3209  08DC  00FB               	movwf	??_PWM_Max_Duty+2
  3210  08DD  0867               	movf	_freq+3,w
  3211  08DE  00FC               	movwf	??_PWM_Max_Duty+3
  3212  08DF  3002               	movlw	2
  3213  08E0                     u1775:	
  3214  08E0  1003               	clrc
  3215  08E1  0DF9               	rlf	??_PWM_Max_Duty,f
  3216  08E2  0DFA               	rlf	??_PWM_Max_Duty+1,f
  3217  08E3  0DFB               	rlf	??_PWM_Max_Duty+2,f
  3218  08E4  0DFC               	rlf	??_PWM_Max_Duty+3,f
  3219  08E5  3EFF               	addlw	-1
  3220  08E6  1D03               	skipz
  3221  08E7  28E0               	goto	u1775
  3222  08E8  087C               	movf	??_PWM_Max_Duty+3,w
  3223  08E9  00F3               	movwf	___aldiv@divisor+3
  3224  08EA  087B               	movf	??_PWM_Max_Duty+2,w
  3225  08EB  00F2               	movwf	___aldiv@divisor+2
  3226  08EC  087A               	movf	??_PWM_Max_Duty+1,w
  3227  08ED  00F1               	movwf	___aldiv@divisor+1
  3228  08EE  0879               	movf	??_PWM_Max_Duty,w
  3229  08EF  00F0               	movwf	___aldiv@divisor
  3230  08F0  3000               	movlw	0
  3231  08F1  00F7               	movwf	___aldiv@dividend+3
  3232  08F2  30F4               	movlw	244
  3233  08F3  00F6               	movwf	___aldiv@dividend+2
  3234  08F4  3024               	movlw	36
  3235  08F5  00F5               	movwf	___aldiv@dividend+1
  3236  08F6  3000               	movlw	0
  3237  08F7  00F4               	movwf	___aldiv@dividend
  3238  08F8  120A  158A  239D   	fcall	___aldiv
  3239  08FB  0871               	movf	?___aldiv+1,w
  3240  08FC  1283               	bcf	3,5	;RP0=0, select bank0
  3241  08FD  1303               	bcf	3,6	;RP1=0, select bank0
  3242  08FE  00A7               	movwf	?_PWM_Max_Duty+1
  3243  08FF  0870               	movf	?___aldiv,w
  3244  0900  00A6               	movwf	?_PWM_Max_Duty
  3245  0901  0008               	return
  3246  0902                     __end_of_PWM_Max_Duty:	
  3247                           
  3248                           	psect	text16
  3249  0B9D                     __ptext16:	
  3250 ;; *************** function ___aldiv *****************
  3251 ;; Defined at:
  3252 ;;		line 6 in file "C:\Program Files (x86)\Microchip\xc8\v1.45\sources\common\aldiv.c"
  3253 ;; Parameters:    Size  Location     Type
  3254 ;;  divisor         4    0[COMMON] long 
  3255 ;;  dividend        4    4[COMMON] long 
  3256 ;; Auto vars:     Size  Location     Type
  3257 ;;  quotient        4    2[BANK0 ] long 
  3258 ;;  sign            1    1[BANK0 ] unsigned char 
  3259 ;;  counter         1    0[BANK0 ] unsigned char 
  3260 ;; Return value:  Size  Location     Type
  3261 ;;                  4    0[COMMON] long 
  3262 ;; Registers used:
  3263 ;;		wreg, status,2, status,0
  3264 ;; Tracked objects:
  3265 ;;		On entry : 0/0
  3266 ;;		On exit  : 0/0
  3267 ;;		Unchanged: 0/0
  3268 ;; Data sizes:     COMMON   BANK0   BANK1   BANK3   BANK2
  3269 ;;      Params:         8       0       0       0       0
  3270 ;;      Locals:         0       6       0       0       0
  3271 ;;      Temps:          1       0       0       0       0
  3272 ;;      Totals:         9       6       0       0       0
  3273 ;;Total ram usage:       15 bytes
  3274 ;; Hardware stack levels used:    1
  3275 ;; This function calls:
  3276 ;;		Nothing
  3277 ;; This function is called by:
  3278 ;;		_PWM_Max_Duty
  3279 ;;		_PWM1_Init
  3280 ;;		_PWM2_Init
  3281 ;; This function uses a non-reentrant model
  3282 ;;
  3283                           
  3284                           
  3285                           ;psect for function ___aldiv
  3286  0B9D                     ___aldiv:	
  3287                           
  3288                           ;incstack = 0
  3289                           ; Regs used in ___aldiv: [wreg+status,2+status,0]
  3290  0B9D  1283               	bcf	3,5	;RP0=0, select bank0
  3291  0B9E  1303               	bcf	3,6	;RP1=0, select bank0
  3292  0B9F  01A1               	clrf	___aldiv@sign
  3293  0BA0  1FF3               	btfss	___aldiv@divisor+3,7
  3294  0BA1  2BAF               	goto	l287
  3295  0BA2  09F0               	comf	___aldiv@divisor,f
  3296  0BA3  09F1               	comf	___aldiv@divisor+1,f
  3297  0BA4  09F2               	comf	___aldiv@divisor+2,f
  3298  0BA5  09F3               	comf	___aldiv@divisor+3,f
  3299  0BA6  0AF0               	incf	___aldiv@divisor,f
  3300  0BA7  1903               	skipnz
  3301  0BA8  0AF1               	incf	___aldiv@divisor+1,f
  3302  0BA9  1903               	skipnz
  3303  0BAA  0AF2               	incf	___aldiv@divisor+2,f
  3304  0BAB  1903               	skipnz
  3305  0BAC  0AF3               	incf	___aldiv@divisor+3,f
  3306  0BAD  01A1               	clrf	___aldiv@sign
  3307  0BAE  0AA1               	incf	___aldiv@sign,f
  3308  0BAF                     l287:	
  3309  0BAF  1FF7               	btfss	___aldiv@dividend+3,7
  3310  0BB0  2BC0               	goto	l1412
  3311  0BB1  09F4               	comf	___aldiv@dividend,f
  3312  0BB2  09F5               	comf	___aldiv@dividend+1,f
  3313  0BB3  09F6               	comf	___aldiv@dividend+2,f
  3314  0BB4  09F7               	comf	___aldiv@dividend+3,f
  3315  0BB5  0AF4               	incf	___aldiv@dividend,f
  3316  0BB6  1903               	skipnz
  3317  0BB7  0AF5               	incf	___aldiv@dividend+1,f
  3318  0BB8  1903               	skipnz
  3319  0BB9  0AF6               	incf	___aldiv@dividend+2,f
  3320  0BBA  1903               	skipnz
  3321  0BBB  0AF7               	incf	___aldiv@dividend+3,f
  3322  0BBC  3001               	movlw	1
  3323  0BBD  00F8               	movwf	??___aldiv
  3324  0BBE  0878               	movf	??___aldiv,w
  3325  0BBF  06A1               	xorwf	___aldiv@sign,f
  3326  0BC0                     l1412:	
  3327  0BC0  3000               	movlw	0
  3328  0BC1  00A5               	movwf	___aldiv@quotient+3
  3329  0BC2  3000               	movlw	0
  3330  0BC3  00A4               	movwf	___aldiv@quotient+2
  3331  0BC4  3000               	movlw	0
  3332  0BC5  00A3               	movwf	___aldiv@quotient+1
  3333  0BC6  3000               	movlw	0
  3334  0BC7  00A2               	movwf	___aldiv@quotient
  3335  0BC8  0873               	movf	___aldiv@divisor+3,w
  3336  0BC9  0472               	iorwf	___aldiv@divisor+2,w
  3337  0BCA  0471               	iorwf	___aldiv@divisor+1,w
  3338  0BCB  0470               	iorwf	___aldiv@divisor,w
  3339  0BCC  1903               	skipnz
  3340  0BCD  2C15               	goto	l1434
  3341  0BCE  01A0               	clrf	___aldiv@counter
  3342  0BCF  0AA0               	incf	___aldiv@counter,f
  3343  0BD0                     l1420:	
  3344  0BD0  1BF3               	btfsc	___aldiv@divisor+3,7
  3345  0BD1  2BE0               	goto	l1422
  3346  0BD2  3001               	movlw	1
  3347  0BD3  00F8               	movwf	??___aldiv
  3348  0BD4                     u1705:	
  3349  0BD4  1003               	clrc
  3350  0BD5  0DF0               	rlf	___aldiv@divisor,f
  3351  0BD6  0DF1               	rlf	___aldiv@divisor+1,f
  3352  0BD7  0DF2               	rlf	___aldiv@divisor+2,f
  3353  0BD8  0DF3               	rlf	___aldiv@divisor+3,f
  3354  0BD9  0BF8               	decfsz	??___aldiv,f
  3355  0BDA  2BD4               	goto	u1705
  3356  0BDB  3001               	movlw	1
  3357  0BDC  00F8               	movwf	??___aldiv
  3358  0BDD  0878               	movf	??___aldiv,w
  3359  0BDE  07A0               	addwf	___aldiv@counter,f
  3360  0BDF  2BD0               	goto	l1420
  3361  0BE0                     l1422:	
  3362  0BE0  3001               	movlw	1
  3363  0BE1  00F8               	movwf	??___aldiv
  3364  0BE2                     u1725:	
  3365  0BE2  1003               	clrc
  3366  0BE3  0DA2               	rlf	___aldiv@quotient,f
  3367  0BE4  0DA3               	rlf	___aldiv@quotient+1,f
  3368  0BE5  0DA4               	rlf	___aldiv@quotient+2,f
  3369  0BE6  0DA5               	rlf	___aldiv@quotient+3,f
  3370  0BE7  0BF8               	decfsz	??___aldiv,f
  3371  0BE8  2BE2               	goto	u1725
  3372  0BE9  0873               	movf	___aldiv@divisor+3,w
  3373  0BEA  0277               	subwf	___aldiv@dividend+3,w
  3374  0BEB  1D03               	skipz
  3375  0BEC  2BF7               	goto	u1735
  3376  0BED  0872               	movf	___aldiv@divisor+2,w
  3377  0BEE  0276               	subwf	___aldiv@dividend+2,w
  3378  0BEF  1D03               	skipz
  3379  0BF0  2BF7               	goto	u1735
  3380  0BF1  0871               	movf	___aldiv@divisor+1,w
  3381  0BF2  0275               	subwf	___aldiv@dividend+1,w
  3382  0BF3  1D03               	skipz
  3383  0BF4  2BF7               	goto	u1735
  3384  0BF5  0870               	movf	___aldiv@divisor,w
  3385  0BF6  0274               	subwf	___aldiv@dividend,w
  3386  0BF7                     u1735:	
  3387  0BF7  1C03               	skipc
  3388  0BF8  2C08               	goto	l1430
  3389  0BF9  0870               	movf	___aldiv@divisor,w
  3390  0BFA  02F4               	subwf	___aldiv@dividend,f
  3391  0BFB  0871               	movf	___aldiv@divisor+1,w
  3392  0BFC  1C03               	skipc
  3393  0BFD  0F71               	incfsz	___aldiv@divisor+1,w
  3394  0BFE  02F5               	subwf	___aldiv@dividend+1,f
  3395  0BFF  0872               	movf	___aldiv@divisor+2,w
  3396  0C00  1C03               	skipc
  3397  0C01  0F72               	incfsz	___aldiv@divisor+2,w
  3398  0C02  02F6               	subwf	___aldiv@dividend+2,f
  3399  0C03  0873               	movf	___aldiv@divisor+3,w
  3400  0C04  1C03               	skipc
  3401  0C05  0F73               	incfsz	___aldiv@divisor+3,w
  3402  0C06  02F7               	subwf	___aldiv@dividend+3,f
  3403  0C07  1422               	bsf	___aldiv@quotient,0
  3404  0C08                     l1430:	
  3405  0C08  3001               	movlw	1
  3406  0C09                     u1745:	
  3407  0C09  1003               	clrc
  3408  0C0A  0CF3               	rrf	___aldiv@divisor+3,f
  3409  0C0B  0CF2               	rrf	___aldiv@divisor+2,f
  3410  0C0C  0CF1               	rrf	___aldiv@divisor+1,f
  3411  0C0D  0CF0               	rrf	___aldiv@divisor,f
  3412  0C0E  3EFF               	addlw	-1
  3413  0C0F  1D03               	skipz
  3414  0C10  2C09               	goto	u1745
  3415  0C11  3001               	movlw	1
  3416  0C12  02A0               	subwf	___aldiv@counter,f
  3417  0C13  1D03               	btfss	3,2
  3418  0C14  2BE0               	goto	l1422
  3419  0C15                     l1434:	
  3420  0C15  0821               	movf	___aldiv@sign,w
  3421  0C16  1903               	btfsc	3,2
  3422  0C17  2C23               	goto	l1438
  3423  0C18  09A2               	comf	___aldiv@quotient,f
  3424  0C19  09A3               	comf	___aldiv@quotient+1,f
  3425  0C1A  09A4               	comf	___aldiv@quotient+2,f
  3426  0C1B  09A5               	comf	___aldiv@quotient+3,f
  3427  0C1C  0AA2               	incf	___aldiv@quotient,f
  3428  0C1D  1903               	skipnz
  3429  0C1E  0AA3               	incf	___aldiv@quotient+1,f
  3430  0C1F  1903               	skipnz
  3431  0C20  0AA4               	incf	___aldiv@quotient+2,f
  3432  0C21  1903               	skipnz
  3433  0C22  0AA5               	incf	___aldiv@quotient+3,f
  3434  0C23                     l1438:	
  3435  0C23  0825               	movf	___aldiv@quotient+3,w
  3436  0C24  00F3               	movwf	?___aldiv+3
  3437  0C25  0824               	movf	___aldiv@quotient+2,w
  3438  0C26  00F2               	movwf	?___aldiv+2
  3439  0C27  0823               	movf	___aldiv@quotient+1,w
  3440  0C28  00F1               	movwf	?___aldiv+1
  3441  0C29  0822               	movf	___aldiv@quotient,w
  3442  0C2A  00F0               	movwf	?___aldiv
  3443  0C2B  0008               	return
  3444  0C2C                     __end_of___aldiv:	
  3445  007E                     btemp	set	126	;btemp
  3446  007E                     wtemp0	set	126
  3447                           
  3448                           	psect	maintext_split_1
  3449  0D7A                     L2:	
  3450  0D7A  1303               	bcf	3,6	;RP1=0, select bank0
  3451  0D7B  0851               	movf	?___fttol+1,w
  3452  0D7C  1683               	bsf	3,5	;RP0=1, select bank1
  3453  0D7D  1303               	bcf	3,6	;RP1=0, select bank1
  3454  0D7E  00B8               	movwf	(_main$497+1)^(0+128)
  3455  0D7F  1283               	bcf	3,5	;RP0=0, select bank0
  3456  0D80  1303               	bcf	3,6	;RP1=0, select bank0
  3457  0D81  0850               	movf	?___fttol,w
  3458  0D82  1683               	bsf	3,5	;RP0=1, select bank1
  3459  0D83  1303               	bcf	3,6	;RP1=0, select bank1
  3460  0D84  00B7               	movwf	_main$497^(0+128)
  3461                           
  3462                           ;maincode.c: 228: }
  3463                           ;maincode.c: 229: PWM1_Duty(Lspeed);
  3464  0D85  0838               	movf	(_main$497+1)^(0+128),w
  3465  0D86  1283               	bcf	3,5	;RP0=0, select bank0
  3466  0D87  1303               	bcf	3,6	;RP1=0, select bank0
  3467  0D88  00DF               	movwf	PWM1_Duty@duty+1
  3468  0D89  1683               	bsf	3,5	;RP0=1, select bank1
  3469  0D8A  1303               	bcf	3,6	;RP1=0, select bank1
  3470  0D8B  0837               	movf	_main$497^(0+128),w
  3471  0D8C  1283               	bcf	3,5	;RP0=0, select bank0
  3472  0D8D  1303               	bcf	3,6	;RP1=0, select bank0
  3473  0D8E  00DE               	movwf	PWM1_Duty@duty
  3474  0D8F  120A  158A  22A2  120A  158A  	fcall	_PWM1_Duty
  3475                           
  3476                           ;maincode.c: 230: PWM2_Duty(Rspeed);
  3477  0D94  1683               	bsf	3,5	;RP0=1, select bank1
  3478  0D95  1303               	bcf	3,6	;RP1=0, select bank1
  3479  0D96  0848               	movf	main@Rspeed^(0+128),w
  3480  0D97  1283               	bcf	3,5	;RP0=0, select bank0
  3481  0D98  1303               	bcf	3,6	;RP1=0, select bank0
  3482  0D99  00D0               	movwf	___fttol@f1
  3483  0D9A  1683               	bsf	3,5	;RP0=1, select bank1
  3484  0D9B  1303               	bcf	3,6	;RP1=0, select bank1
  3485  0D9C  0849               	movf	(main@Rspeed+1)^(0+128),w
  3486  0D9D  1283               	bcf	3,5	;RP0=0, select bank0
  3487  0D9E  1303               	bcf	3,6	;RP1=0, select bank0
  3488  0D9F  00D1               	movwf	___fttol@f1+1
  3489  0DA0  1683               	bsf	3,5	;RP0=1, select bank1
  3490  0DA1  1303               	bcf	3,6	;RP1=0, select bank1
  3491  0DA2  084A               	movf	(main@Rspeed+2)^(0+128),w
  3492  0DA3  1283               	bcf	3,5	;RP0=0, select bank0
  3493  0DA4  1303               	bcf	3,6	;RP1=0, select bank0
  3494  0DA5  00D2               	movwf	___fttol@f1+2
  3495  0DA6  120A  158A  230F  120A  158A  	fcall	___fttol
  3496  0DAB  1283               	bcf	3,5	;RP0=0, select bank0
  3497  0DAC  1303               	bcf	3,6	;RP1=0, select bank0
  3498  0DAD  0851               	movf	?___fttol+1,w
  3499  0DAE  1683               	bsf	3,5	;RP0=1, select bank1
  3500  0DAF  1303               	bcf	3,6	;RP1=0, select bank1
  3501  0DB0  00BA               	movwf	(_main$498+1)^(0+128)
  3502  0DB1  1283               	bcf	3,5	;RP0=0, select bank0
  3503  0DB2  1303               	bcf	3,6	;RP1=0, select bank0
  3504  0DB3  0850               	movf	?___fttol,w
  3505  0DB4  1683               	bsf	3,5	;RP0=1, select bank1
  3506  0DB5  1303               	bcf	3,6	;RP1=0, select bank1
  3507  0DB6  00B9               	movwf	_main$498^(0+128)
  3508                           
  3509                           ;maincode.c: 230: PWM2_Duty(Rspeed);
  3510  0DB7  083A               	movf	(_main$498+1)^(0+128),w
  3511  0DB8  1283               	bcf	3,5	;RP0=0, select bank0
  3512  0DB9  1303               	bcf	3,6	;RP1=0, select bank0
  3513  0DBA  00DF               	movwf	PWM2_Duty@duty+1
  3514  0DBB  1683               	bsf	3,5	;RP0=1, select bank1
  3515  0DBC  1303               	bcf	3,6	;RP1=0, select bank1
  3516  0DBD  0839               	movf	_main$498^(0+128),w
  3517  0DBE  1283               	bcf	3,5	;RP0=0, select bank0
  3518  0DBF  1303               	bcf	3,6	;RP1=0, select bank0
  3519  0DC0  00DE               	movwf	PWM2_Duty@duty
  3520  0DC1  120A  118A  2013  120A  158A  	fcall	_PWM2_Duty
  3521                           
  3522                           ;maincode.c: 231: _delay((unsigned long)((20)*(16000000/4000.0)));
  3523  0DC6  3068               	movlw	104
  3524  0DC7  1283               	bcf	3,5	;RP0=0, select bank0
  3525  0DC8  1303               	bcf	3,6	;RP1=0, select bank0
  3526  0DC9  00E3               	movwf	??_main+1
  3527  0DCA  30E3               	movlw	227
  3528  0DCB  00E2               	movwf	??_main
  3529  0DCC                     u3097:	
  3530  0DCC  0BE2               	decfsz	??_main,f
  3531  0DCD  2DCC               	goto	u3097
  3532  0DCE  0BE3               	decfsz	??_main+1,f
  3533  0DCF  2DCC               	goto	u3097
  3534  0DD0  2DD1               	nop2
  3535                           
  3536                           ;maincode.c: 232: if((RB3==0)||(RB2==0)||(RB1==0)||(RB0==0)||(RD7==0)||(RD6==0)||(RD5==0
      +                          )){
  3537  0DD1  1283               	bcf	3,5	;RP0=0, select bank0
  3538  0DD2  1303               	bcf	3,6	;RP1=0, select bank0
  3539  0DD3  1986               	btfsc	6,3	;volatile
  3540  0DD4  1D06               	btfss	6,2	;volatile
  3541  0DD5  2DDE               	goto	l1918
  3542  0DD6  1886               	btfsc	6,1	;volatile
  3543  0DD7  1C06               	btfss	6,0	;volatile
  3544  0DD8  2DDE               	goto	l1918
  3545  0DD9  1B88               	btfsc	8,7	;volatile
  3546  0DDA  1F08               	btfss	8,6	;volatile
  3547  0DDB  2DDE               	goto	l1918
  3548  0DDC  1A88               	btfsc	8,5	;volatile
  3549  0DDD  2DE4               	goto	L5
  3550  0DDE                     l1918:	
  3551                           
  3552                           ;maincode.c: 233: LineOut=1;
  3553  0DDE  3001               	movlw	1
  3554  0DDF  1683               	bsf	3,5	;RP0=1, select bank1
  3555  0DE0  1303               	bcf	3,6	;RP1=0, select bank1
  3556  0DE1  00B5               	movwf	main@LineOut^(0+128)
  3557  0DE2  3000               	movlw	0
  3558  0DE3  00B6               	movwf	(main@LineOut^(0+128)+1)
  3559  0DE4                     L5:	
  3560  0DE4  120A  158A  2C68   	goto	l1920
  3561  0DE7                     l123:	
  3562                           
  3563                           ;maincode.c: 234: }
  3564                           ;maincode.c: 235: }
  3565                           ;maincode.c: 237: if((RB0==0)&&(RB3==0)){
  3566  0DE7  1283               	bcf	3,5	;RP0=0, select bank0
  3567  0DE8  1303               	bcf	3,6	;RP1=0, select bank0
  3568  0DE9  1C06               	btfss	6,0	;volatile
  3569  0DEA  1986               	btfsc	6,3	;volatile
  3570  0DEB  2FFD               	goto	L8
  3571                           
  3572                           ;maincode.c: 238: square=-1;
  3573  0DEC  30FF               	movlw	255
  3574  0DED  1683               	bsf	3,5	;RP0=1, select bank1
  3575  0DEE  1303               	bcf	3,6	;RP1=0, select bank1
  3576  0DEF  00A0               	movwf	main@square^(0+128)
  3577  0DF0  30FF               	movlw	255
  3578  0DF1  00A1               	movwf	(main@square^(0+128)+1)
  3579                           
  3580                           ;maincode.c: 239: int i;
  3581                           ;maincode.c: 240: for(i=0;i<20;i++){
  3582  0DF2  01A2               	clrf	main@i^(0+128)
  3583  0DF3  01A3               	clrf	(main@i+1)^(0+128)
  3584  0DF4  0823               	movf	(main@i+1)^(0+128),w
  3585  0DF5  3A80               	xorlw	128
  3586  0DF6  00FF               	movwf	127
  3587  0DF7  3080               	movlw	128
  3588  0DF8  027F               	subwf	127,w
  3589  0DF9  1D03               	skipz
  3590  0DFA  2DFD               	goto	u2855
  3591  0DFB  3014               	movlw	20
  3592  0DFC  0222               	subwf	main@i^(0+128),w
  3593  0DFD                     u2855:	
  3594  0DFD  1803               	btfsc	3,0
  3595  0DFE  2FFD               	goto	L8
  3596  0DFF                     l1932:	
  3597                           
  3598                           ;maincode.c: 241: Lspeed=700;
  3599  0DFF  3000               	movlw	0
  3600  0E00  1683               	bsf	3,5	;RP0=1, select bank1
  3601  0E01  1303               	bcf	3,6	;RP1=0, select bank1
  3602  0E02  00C5               	movwf	main@Lspeed^(0+128)
  3603  0E03  302F               	movlw	47
  3604  0E04  00C6               	movwf	(main@Lspeed+1)^(0+128)
  3605  0E05  3044               	movlw	68
  3606  0E06  00C7               	movwf	(main@Lspeed+2)^(0+128)
  3607                           
  3608                           ;maincode.c: 242: Rspeed=700;
  3609  0E07  3000               	movlw	0
  3610  0E08  00C8               	movwf	main@Rspeed^(0+128)
  3611  0E09  302F               	movlw	47
  3612  0E0A  00C9               	movwf	(main@Rspeed+1)^(0+128)
  3613  0E0B  3044               	movlw	68
  3614  0E0C  00CA               	movwf	(main@Rspeed+2)^(0+128)
  3615                           
  3616                           ;maincode.c: 243: n=0; sum=0;
  3617  0E0D  01CB               	clrf	main@n^(0+128)
  3618  0E0E  01CC               	clrf	(main@n+1)^(0+128)
  3619  0E0F  01C3               	clrf	main@sum^(0+128)
  3620  0E10  01C4               	clrf	(main@sum+1)^(0+128)
  3621                           
  3622                           ;maincode.c: 244: if(RB0==0){
  3623  0E11  1283               	bcf	3,5	;RP0=0, select bank0
  3624  0E12  1303               	bcf	3,6	;RP1=0, select bank0
  3625  0E13  1806               	btfsc	6,0	;volatile
  3626  0E14  2E23               	goto	l1944
  3627                           
  3628                           ;maincode.c: 245: n=n+1;
  3629  0E15  1683               	bsf	3,5	;RP0=1, select bank1
  3630  0E16  1303               	bcf	3,6	;RP1=0, select bank1
  3631  0E17  084B               	movf	main@n^(0+128),w
  3632  0E18  3E01               	addlw	1
  3633  0E19  00CB               	movwf	main@n^(0+128)
  3634  0E1A  084C               	movf	(main@n+1)^(0+128),w
  3635  0E1B  1803               	skipnc
  3636  0E1C  3E01               	addlw	1
  3637  0E1D  3E00               	addlw	0
  3638  0E1E  00CC               	movwf	(main@n+1)^(0+128)
  3639                           
  3640                           ;maincode.c: 247: LineOut=1;
  3641  0E1F  3001               	movlw	1
  3642  0E20  00B5               	movwf	main@LineOut^(0+128)
  3643  0E21  3000               	movlw	0
  3644  0E22  00B6               	movwf	(main@LineOut^(0+128)+1)
  3645  0E23                     l1944:	
  3646                           
  3647                           ;maincode.c: 248: }
  3648                           ;maincode.c: 249: if(RD7==0){
  3649  0E23  1283               	bcf	3,5	;RP0=0, select bank0
  3650  0E24  1B88               	btfsc	8,7	;volatile
  3651  0E25  2E38               	goto	l1948
  3652                           
  3653                           ;maincode.c: 250: n=n+1;
  3654  0E26  1683               	bsf	3,5	;RP0=1, select bank1
  3655  0E27  1303               	bcf	3,6	;RP1=0, select bank1
  3656  0E28  084B               	movf	main@n^(0+128),w
  3657  0E29  3E01               	addlw	1
  3658  0E2A  00CB               	movwf	main@n^(0+128)
  3659  0E2B  084C               	movf	(main@n+1)^(0+128),w
  3660  0E2C  1803               	skipnc
  3661  0E2D  3E01               	addlw	1
  3662  0E2E  3E00               	addlw	0
  3663  0E2F  00CC               	movwf	(main@n+1)^(0+128)
  3664                           
  3665                           ;maincode.c: 251: sum=sum+3;
  3666  0E30  0843               	movf	main@sum^(0+128),w
  3667  0E31  3E03               	addlw	3
  3668  0E32  00C3               	movwf	main@sum^(0+128)
  3669  0E33  0844               	movf	(main@sum+1)^(0+128),w
  3670  0E34  1803               	skipnc
  3671  0E35  3E01               	addlw	1
  3672  0E36  3E00               	addlw	0
  3673  0E37  00C4               	movwf	(main@sum+1)^(0+128)
  3674  0E38                     l1948:	
  3675                           
  3676                           ;maincode.c: 252: }
  3677                           ;maincode.c: 253: if(RD6==0){
  3678  0E38  1283               	bcf	3,5	;RP0=0, select bank0
  3679  0E39  1B08               	btfsc	8,6	;volatile
  3680  0E3A  2E51               	goto	l1954
  3681                           
  3682                           ;maincode.c: 254: n=n+1;
  3683  0E3B  1683               	bsf	3,5	;RP0=1, select bank1
  3684  0E3C  1303               	bcf	3,6	;RP1=0, select bank1
  3685  0E3D  084B               	movf	main@n^(0+128),w
  3686  0E3E  3E01               	addlw	1
  3687  0E3F  00CB               	movwf	main@n^(0+128)
  3688  0E40  084C               	movf	(main@n+1)^(0+128),w
  3689  0E41  1803               	skipnc
  3690  0E42  3E01               	addlw	1
  3691  0E43  3E00               	addlw	0
  3692  0E44  00CC               	movwf	(main@n+1)^(0+128)
  3693                           
  3694                           ;maincode.c: 255: sum=sum+5;
  3695  0E45  0843               	movf	main@sum^(0+128),w
  3696  0E46  3E05               	addlw	5
  3697  0E47  00C3               	movwf	main@sum^(0+128)
  3698  0E48  0844               	movf	(main@sum+1)^(0+128),w
  3699  0E49  1803               	skipnc
  3700  0E4A  3E01               	addlw	1
  3701  0E4B  3E00               	addlw	0
  3702  0E4C  00C4               	movwf	(main@sum+1)^(0+128)
  3703                           
  3704                           ;maincode.c: 256: LineOut=1;
  3705  0E4D  3001               	movlw	1
  3706  0E4E  00B5               	movwf	main@LineOut^(0+128)
  3707  0E4F  3000               	movlw	0
  3708  0E50  00B6               	movwf	(main@LineOut^(0+128)+1)
  3709  0E51                     l1954:	
  3710                           
  3711                           ;maincode.c: 257: }
  3712                           ;maincode.c: 258: if(RD5==0){
  3713  0E51  1283               	bcf	3,5	;RP0=0, select bank0
  3714  0E52  1A88               	btfsc	8,5	;volatile
  3715  0E53  2E6A               	goto	l1960
  3716                           
  3717                           ;maincode.c: 259: n=n+1;
  3718  0E54  1683               	bsf	3,5	;RP0=1, select bank1
  3719  0E55  1303               	bcf	3,6	;RP1=0, select bank1
  3720  0E56  084B               	movf	main@n^(0+128),w
  3721  0E57  3E01               	addlw	1
  3722  0E58  00CB               	movwf	main@n^(0+128)
  3723  0E59  084C               	movf	(main@n+1)^(0+128),w
  3724  0E5A  1803               	skipnc
  3725  0E5B  3E01               	addlw	1
  3726  0E5C  3E00               	addlw	0
  3727  0E5D  00CC               	movwf	(main@n+1)^(0+128)
  3728                           
  3729                           ;maincode.c: 260: sum=sum+9;
  3730  0E5E  0843               	movf	main@sum^(0+128),w
  3731  0E5F  3E09               	addlw	9
  3732  0E60  00C3               	movwf	main@sum^(0+128)
  3733  0E61  0844               	movf	(main@sum+1)^(0+128),w
  3734  0E62  1803               	skipnc
  3735  0E63  3E01               	addlw	1
  3736  0E64  3E00               	addlw	0
  3737  0E65  00C4               	movwf	(main@sum+1)^(0+128)
  3738                           
  3739                           ;maincode.c: 261: LineOut=1;
  3740  0E66  3001               	movlw	1
  3741  0E67  00B5               	movwf	main@LineOut^(0+128)
  3742  0E68  3000               	movlw	0
  3743  0E69  00B6               	movwf	(main@LineOut^(0+128)+1)
  3744  0E6A                     l1960:	
  3745                           
  3746                           ;maincode.c: 262: }
  3747                           ;maincode.c: 263: if(n!=0){
  3748  0E6A  1683               	bsf	3,5	;RP0=1, select bank1
  3749  0E6B  1303               	bcf	3,6	;RP1=0, select bank1
  3750  0E6C  084B               	movf	main@n^(0+128),w
  3751  0E6D  044C               	iorwf	(main@n+1)^(0+128),w
  3752  0E6E  1903               	btfsc	3,2
  3753  0E6F  2EC1               	goto	l1966
  3754                           
  3755                           ;maincode.c: 264: position=sum/n;
  3756  0E70  084C               	movf	(main@n+1)^(0+128),w
  3757  0E71  00F1               	movwf	___awdiv@divisor+1
  3758  0E72  084B               	movf	main@n^(0+128),w
  3759  0E73  00F0               	movwf	___awdiv@divisor
  3760  0E74  0844               	movf	(main@sum+1)^(0+128),w
  3761  0E75  00F3               	movwf	___awdiv@dividend+1
  3762  0E76  0843               	movf	main@sum^(0+128),w
  3763  0E77  00F2               	movwf	___awdiv@dividend
  3764  0E78  120A  158A  2180  120A  158A  	fcall	___awdiv
  3765  0E7D  0871               	movf	?___awdiv+1,w
  3766  0E7E  1283               	bcf	3,5	;RP0=0, select bank0
  3767  0E7F  1303               	bcf	3,6	;RP1=0, select bank0
  3768  0E80  00A9               	movwf	___awtoft@c+1
  3769  0E81  0870               	movf	?___awdiv,w
  3770  0E82  00A8               	movwf	___awtoft@c
  3771  0E83  120A  158A  20B0  120A  158A  	fcall	___awtoft
  3772  0E88  1283               	bcf	3,5	;RP0=0, select bank0
  3773  0E89  1303               	bcf	3,6	;RP1=0, select bank0
  3774  0E8A  0828               	movf	?___awtoft,w
  3775  0E8B  1683               	bsf	3,5	;RP0=1, select bank1
  3776  0E8C  1303               	bcf	3,6	;RP1=0, select bank1
  3777  0E8D  00AC               	movwf	main@position^(0+128)
  3778  0E8E  1283               	bcf	3,5	;RP0=0, select bank0
  3779  0E8F  1303               	bcf	3,6	;RP1=0, select bank0
  3780  0E90  0829               	movf	?___awtoft+1,w
  3781  0E91  1683               	bsf	3,5	;RP0=1, select bank1
  3782  0E92  1303               	bcf	3,6	;RP1=0, select bank1
  3783  0E93  00AD               	movwf	(main@position+1)^(0+128)
  3784  0E94  1283               	bcf	3,5	;RP0=0, select bank0
  3785  0E95  1303               	bcf	3,6	;RP1=0, select bank0
  3786  0E96  082A               	movf	?___awtoft+2,w
  3787  0E97  1683               	bsf	3,5	;RP0=1, select bank1
  3788  0E98  1303               	bcf	3,6	;RP1=0, select bank1
  3789  0E99  00AE               	movwf	(main@position+2)^(0+128)
  3790                           
  3791                           ;maincode.c: 265: error=0-position;
  3792  0E9A  082C               	movf	main@position^(0+128),w
  3793  0E9B  1283               	bcf	3,5	;RP0=0, select bank0
  3794  0E9C  1303               	bcf	3,6	;RP1=0, select bank0
  3795  0E9D  00B0               	movwf	___ftneg@f1
  3796  0E9E  1683               	bsf	3,5	;RP0=1, select bank1
  3797  0E9F  1303               	bcf	3,6	;RP1=0, select bank1
  3798  0EA0  082D               	movf	(main@position+1)^(0+128),w
  3799  0EA1  1283               	bcf	3,5	;RP0=0, select bank0
  3800  0EA2  1303               	bcf	3,6	;RP1=0, select bank0
  3801  0EA3  00B1               	movwf	___ftneg@f1+1
  3802  0EA4  1683               	bsf	3,5	;RP0=1, select bank1
  3803  0EA5  1303               	bcf	3,6	;RP1=0, select bank1
  3804  0EA6  082E               	movf	(main@position+2)^(0+128),w
  3805  0EA7  1283               	bcf	3,5	;RP0=0, select bank0
  3806  0EA8  1303               	bcf	3,6	;RP1=0, select bank0
  3807  0EA9  00B2               	movwf	___ftneg@f1+2
  3808  0EAA  120A  118A  2009  120A  158A  	fcall	___ftneg
  3809  0EAF  1283               	bcf	3,5	;RP0=0, select bank0
  3810  0EB0  1303               	bcf	3,6	;RP1=0, select bank0
  3811  0EB1  0830               	movf	?___ftneg,w
  3812  0EB2  1683               	bsf	3,5	;RP0=1, select bank1
  3813  0EB3  1303               	bcf	3,6	;RP1=0, select bank1
  3814  0EB4  00BD               	movwf	main@error^(0+128)
  3815  0EB5  1283               	bcf	3,5	;RP0=0, select bank0
  3816  0EB6  1303               	bcf	3,6	;RP1=0, select bank0
  3817  0EB7  0831               	movf	?___ftneg+1,w
  3818  0EB8  1683               	bsf	3,5	;RP0=1, select bank1
  3819  0EB9  1303               	bcf	3,6	;RP1=0, select bank1
  3820  0EBA  00BE               	movwf	(main@error+1)^(0+128)
  3821  0EBB  1283               	bcf	3,5	;RP0=0, select bank0
  3822  0EBC  1303               	bcf	3,6	;RP1=0, select bank0
  3823  0EBD  0832               	movf	?___ftneg+2,w
  3824  0EBE  1683               	bsf	3,5	;RP0=1, select bank1
  3825  0EBF  1303               	bcf	3,6	;RP1=0, select bank1
  3826  0EC0  00BF               	movwf	(main@error+2)^(0+128)
  3827  0EC1                     l1966:	
  3828                           
  3829                           ;maincode.c: 266: }
  3830                           ;maincode.c: 267: LastOut=-1;
  3831  0EC1  30FF               	movlw	255
  3832  0EC2  00BB               	movwf	main@LastOut^(0+128)
  3833  0EC3  30FF               	movlw	255
  3834  0EC4  00BC               	movwf	(main@LastOut^(0+128)+1)
  3835                           
  3836                           ;maincode.c: 268: adjustment = Kp*error + Kd*(error - lasterror);
  3837  0EC5  0829               	movf	main@Kd^(0+128),w
  3838  0EC6  1283               	bcf	3,5	;RP0=0, select bank0
  3839  0EC7  1303               	bcf	3,6	;RP1=0, select bank0
  3840  0EC8  00C0               	movwf	___ftmul@f1
  3841  0EC9  1683               	bsf	3,5	;RP0=1, select bank1
  3842  0ECA  1303               	bcf	3,6	;RP1=0, select bank1
  3843  0ECB  082A               	movf	(main@Kd+1)^(0+128),w
  3844  0ECC  1283               	bcf	3,5	;RP0=0, select bank0
  3845  0ECD  1303               	bcf	3,6	;RP1=0, select bank0
  3846  0ECE  00C1               	movwf	___ftmul@f1+1
  3847  0ECF  1683               	bsf	3,5	;RP0=1, select bank1
  3848  0ED0  1303               	bcf	3,6	;RP1=0, select bank1
  3849  0ED1  082B               	movf	(main@Kd+2)^(0+128),w
  3850  0ED2  1283               	bcf	3,5	;RP0=0, select bank0
  3851  0ED3  1303               	bcf	3,6	;RP1=0, select bank0
  3852  0ED4  00C2               	movwf	___ftmul@f1+2
  3853  0ED5  1683               	bsf	3,5	;RP0=1, select bank1
  3854  0ED6  1303               	bcf	3,6	;RP1=0, select bank1
  3855  0ED7  083D               	movf	main@error^(0+128),w
  3856  0ED8  1283               	bcf	3,5	;RP0=0, select bank0
  3857  0ED9  1303               	bcf	3,6	;RP1=0, select bank0
  3858  0EDA  00B3               	movwf	___ftadd@f1
  3859  0EDB  1683               	bsf	3,5	;RP0=1, select bank1
  3860  0EDC  1303               	bcf	3,6	;RP1=0, select bank1
  3861  0EDD  083E               	movf	(main@error+1)^(0+128),w
  3862  0EDE  1283               	bcf	3,5	;RP0=0, select bank0
  3863  0EDF  1303               	bcf	3,6	;RP1=0, select bank0
  3864  0EE0  00B4               	movwf	___ftadd@f1+1
  3865  0EE1  1683               	bsf	3,5	;RP0=1, select bank1
  3866  0EE2  1303               	bcf	3,6	;RP1=0, select bank1
  3867  0EE3  083F               	movf	(main@error+2)^(0+128),w
  3868  0EE4  1283               	bcf	3,5	;RP0=0, select bank0
  3869  0EE5  1303               	bcf	3,6	;RP1=0, select bank0
  3870  0EE6  00B5               	movwf	___ftadd@f1+2
  3871  0EE7  1683               	bsf	3,5	;RP0=1, select bank1
  3872  0EE8  1303               	bcf	3,6	;RP1=0, select bank1
  3873  0EE9  082F               	movf	main@lasterror^(0+128),w
  3874  0EEA  1283               	bcf	3,5	;RP0=0, select bank0
  3875  0EEB  1303               	bcf	3,6	;RP1=0, select bank0
  3876  0EEC  00B0               	movwf	___ftneg@f1
  3877  0EED  1683               	bsf	3,5	;RP0=1, select bank1
  3878  0EEE  1303               	bcf	3,6	;RP1=0, select bank1
  3879  0EEF  0830               	movf	(main@lasterror+1)^(0+128),w
  3880  0EF0  1283               	bcf	3,5	;RP0=0, select bank0
  3881  0EF1  1303               	bcf	3,6	;RP1=0, select bank0
  3882  0EF2  00B1               	movwf	___ftneg@f1+1
  3883  0EF3  1683               	bsf	3,5	;RP0=1, select bank1
  3884  0EF4  1303               	bcf	3,6	;RP1=0, select bank1
  3885  0EF5  0831               	movf	(main@lasterror+2)^(0+128),w
  3886  0EF6  1283               	bcf	3,5	;RP0=0, select bank0
  3887  0EF7  1303               	bcf	3,6	;RP1=0, select bank0
  3888  0EF8  00B2               	movwf	___ftneg@f1+2
  3889  0EF9  120A  118A  2009  120A  158A  	fcall	___ftneg
  3890  0EFE  1283               	bcf	3,5	;RP0=0, select bank0
  3891  0EFF  1303               	bcf	3,6	;RP1=0, select bank0
  3892  0F00  0830               	movf	?___ftneg,w
  3893  0F01  00B6               	movwf	___ftadd@f2
  3894  0F02  0831               	movf	?___ftneg+1,w
  3895  0F03  00B7               	movwf	___ftadd@f2+1
  3896  0F04  0832               	movf	?___ftneg+2,w
  3897  0F05  00B8               	movwf	___ftadd@f2+2
  3898  0F06  120A  118A  2153  120A  158A  	fcall	___ftadd
  3899  0F0B  1283               	bcf	3,5	;RP0=0, select bank0
  3900  0F0C  1303               	bcf	3,6	;RP1=0, select bank0
  3901  0F0D  0833               	movf	?___ftadd,w
  3902  0F0E  00C3               	movwf	___ftmul@f2
  3903  0F0F  0834               	movf	?___ftadd+1,w
  3904  0F10  00C4               	movwf	___ftmul@f2+1
  3905  0F11  0835               	movf	?___ftadd+2,w
  3906  0F12  00C5               	movwf	___ftmul@f2+2
  3907  0F13  120A  118A  2080  120A  158A  	fcall	___ftmul
  3908  0F18  1283               	bcf	3,5	;RP0=0, select bank0
  3909  0F19  1303               	bcf	3,6	;RP1=0, select bank0
  3910  0F1A  0840               	movf	?___ftmul,w
  3911  0F1B  1683               	bsf	3,5	;RP0=1, select bank1
  3912  0F1C  1303               	bcf	3,6	;RP1=0, select bank1
  3913  0F1D  00B2               	movwf	_main$496^(0+128)
  3914  0F1E  1283               	bcf	3,5	;RP0=0, select bank0
  3915  0F1F  1303               	bcf	3,6	;RP1=0, select bank0
  3916  0F20  0841               	movf	?___ftmul+1,w
  3917  0F21  1683               	bsf	3,5	;RP0=1, select bank1
  3918  0F22  1303               	bcf	3,6	;RP1=0, select bank1
  3919  0F23  00B3               	movwf	(_main$496+1)^(0+128)
  3920  0F24  1283               	bcf	3,5	;RP0=0, select bank0
  3921  0F25  1303               	bcf	3,6	;RP1=0, select bank0
  3922  0F26  0842               	movf	?___ftmul+2,w
  3923  0F27  1683               	bsf	3,5	;RP0=1, select bank1
  3924  0F28  1303               	bcf	3,6	;RP1=0, select bank1
  3925  0F29  00B4               	movwf	(_main$496+2)^(0+128)
  3926                           
  3927                           ;maincode.c: 268: adjustment = Kp*error + Kd*(error - lasterror);
  3928  0F2A  0832               	movf	_main$496^(0+128),w
  3929  0F2B  1283               	bcf	3,5	;RP0=0, select bank0
  3930  0F2C  1303               	bcf	3,6	;RP1=0, select bank0
  3931  0F2D  00B3               	movwf	___ftadd@f1
  3932  0F2E  1683               	bsf	3,5	;RP0=1, select bank1
  3933  0F2F  1303               	bcf	3,6	;RP1=0, select bank1
  3934  0F30  0833               	movf	(_main$496+1)^(0+128),w
  3935  0F31  1283               	bcf	3,5	;RP0=0, select bank0
  3936  0F32  1303               	bcf	3,6	;RP1=0, select bank0
  3937  0F33  00B4               	movwf	___ftadd@f1+1
  3938  0F34  1683               	bsf	3,5	;RP0=1, select bank1
  3939  0F35  1303               	bcf	3,6	;RP1=0, select bank1
  3940  0F36  0834               	movf	(_main$496+2)^(0+128),w
  3941  0F37  1283               	bcf	3,5	;RP0=0, select bank0
  3942  0F38  1303               	bcf	3,6	;RP1=0, select bank0
  3943  0F39  00B5               	movwf	___ftadd@f1+2
  3944  0F3A  1683               	bsf	3,5	;RP0=1, select bank1
  3945  0F3B  1303               	bcf	3,6	;RP1=0, select bank1
  3946  0F3C  083D               	movf	main@error^(0+128),w
  3947  0F3D  1283               	bcf	3,5	;RP0=0, select bank0
  3948  0F3E  1303               	bcf	3,6	;RP1=0, select bank0
  3949  0F3F  00C0               	movwf	___ftmul@f1
  3950  0F40  1683               	bsf	3,5	;RP0=1, select bank1
  3951  0F41  1303               	bcf	3,6	;RP1=0, select bank1
  3952  0F42  083E               	movf	(main@error+1)^(0+128),w
  3953  0F43  1283               	bcf	3,5	;RP0=0, select bank0
  3954  0F44  1303               	bcf	3,6	;RP1=0, select bank0
  3955  0F45  00C1               	movwf	___ftmul@f1+1
  3956  0F46  1683               	bsf	3,5	;RP0=1, select bank1
  3957  0F47  1303               	bcf	3,6	;RP1=0, select bank1
  3958  0F48  083F               	movf	(main@error+2)^(0+128),w
  3959  0F49  1283               	bcf	3,5	;RP0=0, select bank0
  3960  0F4A  1303               	bcf	3,6	;RP1=0, select bank0
  3961  0F4B  00C2               	movwf	___ftmul@f1+2
  3962  0F4C  1683               	bsf	3,5	;RP0=1, select bank1
  3963  0F4D  1303               	bcf	3,6	;RP1=0, select bank1
  3964  0F4E  0826               	movf	main@Kp^(0+128),w
  3965  0F4F  1283               	bcf	3,5	;RP0=0, select bank0
  3966  0F50  1303               	bcf	3,6	;RP1=0, select bank0
  3967  0F51  00C3               	movwf	___ftmul@f2
  3968  0F52  1683               	bsf	3,5	;RP0=1, select bank1
  3969  0F53  1303               	bcf	3,6	;RP1=0, select bank1
  3970  0F54  0827               	movf	(main@Kp+1)^(0+128),w
  3971  0F55  1283               	bcf	3,5	;RP0=0, select bank0
  3972  0F56  1303               	bcf	3,6	;RP1=0, select bank0
  3973  0F57  00C4               	movwf	___ftmul@f2+1
  3974  0F58  1683               	bsf	3,5	;RP0=1, select bank1
  3975  0F59  1303               	bcf	3,6	;RP1=0, select bank1
  3976  0F5A  0828               	movf	(main@Kp+2)^(0+128),w
  3977  0F5B  1283               	bcf	3,5	;RP0=0, select bank0
  3978  0F5C  1303               	bcf	3,6	;RP1=0, select bank0
  3979  0F5D  00C5               	movwf	___ftmul@f2+2
  3980  0F5E  120A  118A  2080  120A  158A  	fcall	___ftmul
  3981  0F63  1283               	bcf	3,5	;RP0=0, select bank0
  3982  0F64  1303               	bcf	3,6	;RP1=0, select bank0
  3983  0F65  0840               	movf	?___ftmul,w
  3984  0F66  00B6               	movwf	___ftadd@f2
  3985  0F67  0841               	movf	?___ftmul+1,w
  3986  0F68  00B7               	movwf	___ftadd@f2+1
  3987  0F69  0842               	movf	?___ftmul+2,w
  3988  0F6A  00B8               	movwf	___ftadd@f2+2
  3989  0F6B  120A  118A  2153  120A  158A  	fcall	___ftadd
  3990  0F70  1283               	bcf	3,5	;RP0=0, select bank0
  3991  0F71  1303               	bcf	3,6	;RP1=0, select bank0
  3992  0F72  0833               	movf	?___ftadd,w
  3993  0F73  1683               	bsf	3,5	;RP0=1, select bank1
  3994  0F74  1303               	bcf	3,6	;RP1=0, select bank1
  3995  0F75  00C0               	movwf	main@adjustment^(0+128)
  3996  0F76  1283               	bcf	3,5	;RP0=0, select bank0
  3997  0F77  1303               	bcf	3,6	;RP1=0, select bank0
  3998  0F78  0834               	movf	?___ftadd+1,w
  3999  0F79  1683               	bsf	3,5	;RP0=1, select bank1
  4000  0F7A  1303               	bcf	3,6	;RP1=0, select bank1
  4001  0F7B  00C1               	movwf	(main@adjustment+1)^(0+128)
  4002  0F7C  1283               	bcf	3,5	;RP0=0, select bank0
  4003  0F7D  1303               	bcf	3,6	;RP1=0, select bank0
  4004  0F7E  0835               	movf	?___ftadd+2,w
  4005  0F7F  1683               	bsf	3,5	;RP0=1, select bank1
  4006  0F80  1303               	bcf	3,6	;RP1=0, select bank1
  4007  0F81  00C2               	movwf	(main@adjustment+2)^(0+128)
  4008                           
  4009                           ;maincode.c: 269: lasterror=error;
  4010  0F82  083D               	movf	main@error^(0+128),w
  4011  0F83  00AF               	movwf	main@lasterror^(0+128)
  4012  0F84  083E               	movf	(main@error+1)^(0+128),w
  4013  0F85  00B0               	movwf	(main@lasterror+1)^(0+128)
  4014  0F86  083F               	movf	(main@error+2)^(0+128),w
  4015  0F87  00B1               	movwf	(main@lasterror+2)^(0+128)
  4016                           
  4017                           ;maincode.c: 270: Rspeed=Rspeed+adjustment;
  4018  0F88  0840               	movf	main@adjustment^(0+128),w
  4019  0F89  1283               	bcf	3,5	;RP0=0, select bank0
  4020  0F8A  1303               	bcf	3,6	;RP1=0, select bank0
  4021  0F8B  00B3               	movwf	___ftadd@f1
  4022  0F8C  1683               	bsf	3,5	;RP0=1, select bank1
  4023  0F8D  1303               	bcf	3,6	;RP1=0, select bank1
  4024  0F8E  0841               	movf	(main@adjustment+1)^(0+128),w
  4025  0F8F  1283               	bcf	3,5	;RP0=0, select bank0
  4026  0F90  1303               	bcf	3,6	;RP1=0, select bank0
  4027  0F91  00B4               	movwf	___ftadd@f1+1
  4028  0F92  1683               	bsf	3,5	;RP0=1, select bank1
  4029  0F93  1303               	bcf	3,6	;RP1=0, select bank1
  4030  0F94  0842               	movf	(main@adjustment+2)^(0+128),w
  4031  0F95  1283               	bcf	3,5	;RP0=0, select bank0
  4032  0F96  1303               	bcf	3,6	;RP1=0, select bank0
  4033  0F97  00B5               	movwf	___ftadd@f1+2
  4034  0F98  1683               	bsf	3,5	;RP0=1, select bank1
  4035  0F99  1303               	bcf	3,6	;RP1=0, select bank1
  4036  0F9A  0848               	movf	main@Rspeed^(0+128),w
  4037  0F9B  1283               	bcf	3,5	;RP0=0, select bank0
  4038  0F9C  1303               	bcf	3,6	;RP1=0, select bank0
  4039  0F9D  00B6               	movwf	___ftadd@f2
  4040  0F9E  1683               	bsf	3,5	;RP0=1, select bank1
  4041  0F9F  1303               	bcf	3,6	;RP1=0, select bank1
  4042  0FA0  0849               	movf	(main@Rspeed+1)^(0+128),w
  4043  0FA1  1283               	bcf	3,5	;RP0=0, select bank0
  4044  0FA2  1303               	bcf	3,6	;RP1=0, select bank0
  4045  0FA3  00B7               	movwf	___ftadd@f2+1
  4046  0FA4  1683               	bsf	3,5	;RP0=1, select bank1
  4047  0FA5  1303               	bcf	3,6	;RP1=0, select bank1
  4048  0FA6  084A               	movf	(main@Rspeed+2)^(0+128),w
  4049  0FA7  1283               	bcf	3,5	;RP0=0, select bank0
  4050  0FA8  1303               	bcf	3,6	;RP1=0, select bank0
  4051  0FA9  00B8               	movwf	___ftadd@f2+2
  4052  0FAA  120A  118A  2153  120A  158A  	fcall	___ftadd
  4053  0FAF  1283               	bcf	3,5	;RP0=0, select bank0
  4054  0FB0  1303               	bcf	3,6	;RP1=0, select bank0
  4055  0FB1  0833               	movf	?___ftadd,w
  4056  0FB2  1683               	bsf	3,5	;RP0=1, select bank1
  4057  0FB3  1303               	bcf	3,6	;RP1=0, select bank1
  4058  0FB4  00C8               	movwf	main@Rspeed^(0+128)
  4059  0FB5  1283               	bcf	3,5	;RP0=0, select bank0
  4060  0FB6  1303               	bcf	3,6	;RP1=0, select bank0
  4061  0FB7  0834               	movf	?___ftadd+1,w
  4062  0FB8  1683               	bsf	3,5	;RP0=1, select bank1
  4063  0FB9  1303               	bcf	3,6	;RP1=0, select bank1
  4064  0FBA  00C9               	movwf	(main@Rspeed+1)^(0+128)
  4065  0FBB  1283               	bcf	3,5	;RP0=0, select bank0
  4066  0FBC  1303               	bcf	3,6	;RP1=0, select bank0
  4067  0FBD  0835               	movf	?___ftadd+2,w
  4068  0FBE  1683               	bsf	3,5	;RP0=1, select bank1
  4069  0FBF  1303               	bcf	3,6	;RP1=0, select bank1
  4070  0FC0  00CA               	movwf	(main@Rspeed+2)^(0+128)
  4071                           
  4072                           ;maincode.c: 271: Lspeed=Lspeed-adjustment/6;
  4073  0FC1  0845               	movf	main@Lspeed^(0+128),w
  4074  0FC2  1283               	bcf	3,5	;RP0=0, select bank0
  4075  0FC3  1303               	bcf	3,6	;RP1=0, select bank0
  4076  0FC4  00B3               	movwf	___ftadd@f1
  4077  0FC5  1683               	bsf	3,5	;RP0=1, select bank1
  4078  0FC6  1303               	bcf	3,6	;RP1=0, select bank1
  4079  0FC7  0846               	movf	(main@Lspeed+1)^(0+128),w
  4080  0FC8  1283               	bcf	3,5	;RP0=0, select bank0
  4081  0FC9  1303               	bcf	3,6	;RP1=0, select bank0
  4082  0FCA  00B4               	movwf	___ftadd@f1+1
  4083  0FCB  1683               	bsf	3,5	;RP0=1, select bank1
  4084  0FCC  1303               	bcf	3,6	;RP1=0, select bank1
  4085  0FCD  0847               	movf	(main@Lspeed+2)^(0+128),w
  4086  0FCE  1283               	bcf	3,5	;RP0=0, select bank0
  4087  0FCF  1303               	bcf	3,6	;RP1=0, select bank0
  4088  0FD0  00B5               	movwf	___ftadd@f1+2
  4089  0FD1  1683               	bsf	3,5	;RP0=1, select bank1
  4090  0FD2  1303               	bcf	3,6	;RP1=0, select bank1
  4091  0FD3  0840               	movf	main@adjustment^(0+128),w
  4092  0FD4  1283               	bcf	3,5	;RP0=0, select bank0
  4093  0FD5  1303               	bcf	3,6	;RP1=0, select bank0
  4094  0FD6  00A3               	movwf	___ftdiv@f1
  4095  0FD7  1683               	bsf	3,5	;RP0=1, select bank1
  4096  0FD8  1303               	bcf	3,6	;RP1=0, select bank1
  4097  0FD9  0841               	movf	(main@adjustment+1)^(0+128),w
  4098  0FDA  1283               	bcf	3,5	;RP0=0, select bank0
  4099  0FDB  1303               	bcf	3,6	;RP1=0, select bank0
  4100  0FDC  00A4               	movwf	___ftdiv@f1+1
  4101  0FDD  1683               	bsf	3,5	;RP0=1, select bank1
  4102  0FDE  1303               	bcf	3,6	;RP1=0, select bank1
  4103  0FDF  0842               	movf	(main@adjustment+2)^(0+128),w
  4104  0FE0  1283               	bcf	3,5	;RP0=0, select bank0
  4105  0FE1  1303               	bcf	3,6	;RP1=0, select bank0
  4106  0FE2  00A5               	movwf	___ftdiv@f1+2
  4107  0FE3  3000               	movlw	0
  4108  0FE4  00A0               	movwf	___ftdiv@f2
  4109  0FE5  30C0               	movlw	192
  4110  0FE6  00A1               	movwf	___ftdiv@f2+1
  4111  0FE7  3040               	movlw	64
  4112  0FE8  00A2               	movwf	___ftdiv@f2+2
  4113  0FE9  120A  158A  24C2  120A  158A  	fcall	___ftdiv
  4114  0FEE  1283               	bcf	3,5	;RP0=0, select bank0
  4115  0FEF  1303               	bcf	3,6	;RP1=0, select bank0
  4116  0FF0  0820               	movf	?___ftdiv,w
  4117  0FF1  00B0               	movwf	___ftneg@f1
  4118  0FF2  0821               	movf	?___ftdiv+1,w
  4119  0FF3  00B1               	movwf	___ftneg@f1+1
  4120  0FF4  0822               	movf	?___ftdiv+2,w
  4121  0FF5  00B2               	movwf	___ftneg@f1+2
  4122  0FF6  120A  118A  2009   	fcall	___ftneg
  4123  0FF9  1283               	bcf	3,5	;RP0=0, select bank0
  4124  0FFA  120A  118A  2A5C   	ljmp	L6
  4125  0FFD                     L8:	
  4126  0FFD                     L7:	
  4127  0FFD  120A  118A  2BE4   	ljmp	l124
  4128                           
  4129                           	psect	maintext_split_2
  4130  025C                     L6:	
  4131  025C  1303               	bcf	3,6	;RP1=0, select bank0
  4132  025D  0830               	movf	?___ftneg,w
  4133  025E  00B6               	movwf	___ftadd@f2
  4134  025F  0831               	movf	?___ftneg+1,w
  4135  0260  00B7               	movwf	___ftadd@f2+1
  4136  0261  0832               	movf	?___ftneg+2,w
  4137  0262  00B8               	movwf	___ftadd@f2+2
  4138  0263  120A  118A  2153  120A  118A  	fcall	___ftadd
  4139  0268  1283               	bcf	3,5	;RP0=0, select bank0
  4140  0269  1303               	bcf	3,6	;RP1=0, select bank0
  4141  026A  0833               	movf	?___ftadd,w
  4142  026B  1683               	bsf	3,5	;RP0=1, select bank1
  4143  026C  1303               	bcf	3,6	;RP1=0, select bank1
  4144  026D  00C5               	movwf	main@Lspeed^(0+128)
  4145  026E  1283               	bcf	3,5	;RP0=0, select bank0
  4146  026F  1303               	bcf	3,6	;RP1=0, select bank0
  4147  0270  0834               	movf	?___ftadd+1,w
  4148  0271  1683               	bsf	3,5	;RP0=1, select bank1
  4149  0272  1303               	bcf	3,6	;RP1=0, select bank1
  4150  0273  00C6               	movwf	(main@Lspeed+1)^(0+128)
  4151  0274  1283               	bcf	3,5	;RP0=0, select bank0
  4152  0275  1303               	bcf	3,6	;RP1=0, select bank0
  4153  0276  0835               	movf	?___ftadd+2,w
  4154  0277  1683               	bsf	3,5	;RP0=1, select bank1
  4155  0278  1303               	bcf	3,6	;RP1=0, select bank1
  4156  0279  00C7               	movwf	(main@Lspeed+2)^(0+128)
  4157                           
  4158                           ;maincode.c: 272: if(Rspeed>1023){
  4159  027A  30C0               	movlw	192
  4160  027B  00F0               	movwf	___ftge@ff1
  4161  027C  307F               	movlw	127
  4162  027D  00F1               	movwf	___ftge@ff1+1
  4163  027E  3044               	movlw	68
  4164  027F  00F2               	movwf	___ftge@ff1+2
  4165  0280  0848               	movf	main@Rspeed^(0+128),w
  4166  0281  00F3               	movwf	___ftge@ff2
  4167  0282  0849               	movf	(main@Rspeed+1)^(0+128),w
  4168  0283  00F4               	movwf	___ftge@ff2+1
  4169  0284  084A               	movf	(main@Rspeed+2)^(0+128),w
  4170  0285  00F5               	movwf	___ftge@ff2+2
  4171  0286  120A  158A  21D9  120A  118A  	fcall	___ftge
  4172  028B  1803               	btfsc	3,0
  4173  028C  2A95               	goto	l1982
  4174                           
  4175                           ;maincode.c: 273: Rspeed=1023;
  4176  028D  30C0               	movlw	192
  4177  028E  1683               	bsf	3,5	;RP0=1, select bank1
  4178  028F  1303               	bcf	3,6	;RP1=0, select bank1
  4179  0290  00C8               	movwf	main@Rspeed^(0+128)
  4180  0291  307F               	movlw	127
  4181  0292  00C9               	movwf	(main@Rspeed+1)^(0+128)
  4182  0293  3044               	movlw	68
  4183  0294  00CA               	movwf	(main@Rspeed+2)^(0+128)
  4184  0295                     l1982:	
  4185                           
  4186                           ;maincode.c: 274: }
  4187                           ;maincode.c: 275: if(Lspeed>1023){
  4188  0295  30C0               	movlw	192
  4189  0296  00F0               	movwf	___ftge@ff1
  4190  0297  307F               	movlw	127
  4191  0298  00F1               	movwf	___ftge@ff1+1
  4192  0299  3044               	movlw	68
  4193  029A  00F2               	movwf	___ftge@ff1+2
  4194  029B  1683               	bsf	3,5	;RP0=1, select bank1
  4195  029C  1303               	bcf	3,6	;RP1=0, select bank1
  4196  029D  0845               	movf	main@Lspeed^(0+128),w
  4197  029E  00F3               	movwf	___ftge@ff2
  4198  029F  0846               	movf	(main@Lspeed+1)^(0+128),w
  4199  02A0  00F4               	movwf	___ftge@ff2+1
  4200  02A1  0847               	movf	(main@Lspeed+2)^(0+128),w
  4201  02A2  00F5               	movwf	___ftge@ff2+2
  4202  02A3  120A  158A  21D9  120A  118A  	fcall	___ftge
  4203  02A8  1803               	btfsc	3,0
  4204  02A9  2AB2               	goto	l1986
  4205                           
  4206                           ;maincode.c: 276: Lspeed=1023;
  4207  02AA  30C0               	movlw	192
  4208  02AB  1683               	bsf	3,5	;RP0=1, select bank1
  4209  02AC  1303               	bcf	3,6	;RP1=0, select bank1
  4210  02AD  00C5               	movwf	main@Lspeed^(0+128)
  4211  02AE  307F               	movlw	127
  4212  02AF  00C6               	movwf	(main@Lspeed+1)^(0+128)
  4213  02B0  3044               	movlw	68
  4214  02B1  00C7               	movwf	(main@Lspeed+2)^(0+128)
  4215  02B2                     l1986:	
  4216                           
  4217                           ;maincode.c: 277: }
  4218                           ;maincode.c: 278: if(Rspeed<0){
  4219  02B2  1683               	bsf	3,5	;RP0=1, select bank1
  4220  02B3  1303               	bcf	3,6	;RP1=0, select bank1
  4221  02B4  0848               	movf	main@Rspeed^(0+128),w
  4222  02B5  00F0               	movwf	___ftge@ff1
  4223  02B6  0849               	movf	(main@Rspeed+1)^(0+128),w
  4224  02B7  00F1               	movwf	___ftge@ff1+1
  4225  02B8  084A               	movf	(main@Rspeed+2)^(0+128),w
  4226  02B9  00F2               	movwf	___ftge@ff1+2
  4227  02BA  3000               	movlw	0
  4228  02BB  00F3               	movwf	___ftge@ff2
  4229  02BC  3000               	movlw	0
  4230  02BD  00F4               	movwf	___ftge@ff2+1
  4231  02BE  3000               	movlw	0
  4232  02BF  00F5               	movwf	___ftge@ff2+2
  4233  02C0  120A  158A  21D9  120A  118A  	fcall	___ftge
  4234  02C5  1803               	btfsc	3,0
  4235  02C6  2B07               	goto	l134
  4236                           
  4237                           ;maincode.c: 279: RD0=0;
  4238  02C7  1283               	bcf	3,5	;RP0=0, select bank0
  4239  02C8  1303               	bcf	3,6	;RP1=0, select bank0
  4240  02C9  1008               	bcf	8,0	;volatile
  4241                           
  4242                           ;maincode.c: 280: RD1=1;
  4243  02CA  1488               	bsf	8,1	;volatile
  4244                           
  4245                           ;maincode.c: 281: Rspeed=-Rspeed/2.5;
  4246  02CB  3000               	movlw	0
  4247  02CC  00A0               	movwf	___ftdiv@f2
  4248  02CD  3020               	movlw	32
  4249  02CE  00A1               	movwf	___ftdiv@f2+1
  4250  02CF  3040               	movlw	64
  4251  02D0  00A2               	movwf	___ftdiv@f2+2
  4252  02D1  1683               	bsf	3,5	;RP0=1, select bank1
  4253  02D2  1303               	bcf	3,6	;RP1=0, select bank1
  4254  02D3  0848               	movf	main@Rspeed^(0+128),w
  4255  02D4  1283               	bcf	3,5	;RP0=0, select bank0
  4256  02D5  1303               	bcf	3,6	;RP1=0, select bank0
  4257  02D6  00B0               	movwf	___ftneg@f1
  4258  02D7  1683               	bsf	3,5	;RP0=1, select bank1
  4259  02D8  1303               	bcf	3,6	;RP1=0, select bank1
  4260  02D9  0849               	movf	(main@Rspeed+1)^(0+128),w
  4261  02DA  1283               	bcf	3,5	;RP0=0, select bank0
  4262  02DB  1303               	bcf	3,6	;RP1=0, select bank0
  4263  02DC  00B1               	movwf	___ftneg@f1+1
  4264  02DD  1683               	bsf	3,5	;RP0=1, select bank1
  4265  02DE  1303               	bcf	3,6	;RP1=0, select bank1
  4266  02DF  084A               	movf	(main@Rspeed+2)^(0+128),w
  4267  02E0  1283               	bcf	3,5	;RP0=0, select bank0
  4268  02E1  1303               	bcf	3,6	;RP1=0, select bank0
  4269  02E2  00B2               	movwf	___ftneg@f1+2
  4270  02E3  120A  118A  2009  120A  118A  	fcall	___ftneg
  4271  02E8  1283               	bcf	3,5	;RP0=0, select bank0
  4272  02E9  1303               	bcf	3,6	;RP1=0, select bank0
  4273  02EA  0830               	movf	?___ftneg,w
  4274  02EB  00A3               	movwf	___ftdiv@f1
  4275  02EC  0831               	movf	?___ftneg+1,w
  4276  02ED  00A4               	movwf	___ftdiv@f1+1
  4277  02EE  0832               	movf	?___ftneg+2,w
  4278  02EF  00A5               	movwf	___ftdiv@f1+2
  4279  02F0  120A  158A  24C2  120A  118A  	fcall	___ftdiv
  4280  02F5  1283               	bcf	3,5	;RP0=0, select bank0
  4281  02F6  1303               	bcf	3,6	;RP1=0, select bank0
  4282  02F7  0820               	movf	?___ftdiv,w
  4283  02F8  1683               	bsf	3,5	;RP0=1, select bank1
  4284  02F9  1303               	bcf	3,6	;RP1=0, select bank1
  4285  02FA  00C8               	movwf	main@Rspeed^(0+128)
  4286  02FB  1283               	bcf	3,5	;RP0=0, select bank0
  4287  02FC  1303               	bcf	3,6	;RP1=0, select bank0
  4288  02FD  0821               	movf	?___ftdiv+1,w
  4289  02FE  1683               	bsf	3,5	;RP0=1, select bank1
  4290  02FF  1303               	bcf	3,6	;RP1=0, select bank1
  4291  0300  00C9               	movwf	(main@Rspeed+1)^(0+128)
  4292  0301  1283               	bcf	3,5	;RP0=0, select bank0
  4293  0302  1303               	bcf	3,6	;RP1=0, select bank0
  4294  0303  0822               	movf	?___ftdiv+2,w
  4295  0304  1683               	bsf	3,5	;RP0=1, select bank1
  4296  0305  1303               	bcf	3,6	;RP1=0, select bank1
  4297  0306  00CA               	movwf	(main@Rspeed+2)^(0+128)
  4298  0307                     l134:	
  4299                           
  4300                           ;maincode.c: 282: }
  4301                           ;maincode.c: 283: if(Lspeed<0){
  4302  0307  1683               	bsf	3,5	;RP0=1, select bank1
  4303  0308  1303               	bcf	3,6	;RP1=0, select bank1
  4304  0309  0845               	movf	main@Lspeed^(0+128),w
  4305  030A  00F0               	movwf	___ftge@ff1
  4306  030B  0846               	movf	(main@Lspeed+1)^(0+128),w
  4307  030C  00F1               	movwf	___ftge@ff1+1
  4308  030D  0847               	movf	(main@Lspeed+2)^(0+128),w
  4309  030E  00F2               	movwf	___ftge@ff1+2
  4310  030F  3000               	movlw	0
  4311  0310  00F3               	movwf	___ftge@ff2
  4312  0311  3000               	movlw	0
  4313  0312  00F4               	movwf	___ftge@ff2+1
  4314  0313  3000               	movlw	0
  4315  0314  00F5               	movwf	___ftge@ff2+2
  4316  0315  120A  158A  21D9  120A  118A  	fcall	___ftge
  4317  031A  1803               	btfsc	3,0
  4318  031B  2B5C               	goto	l135
  4319                           
  4320                           ;maincode.c: 284: RD2=0;
  4321  031C  1283               	bcf	3,5	;RP0=0, select bank0
  4322  031D  1303               	bcf	3,6	;RP1=0, select bank0
  4323  031E  1108               	bcf	8,2	;volatile
  4324                           
  4325                           ;maincode.c: 285: RD3=1;
  4326  031F  1588               	bsf	8,3	;volatile
  4327                           
  4328                           ;maincode.c: 286: Lspeed=-Lspeed/2.5;
  4329  0320  3000               	movlw	0
  4330  0321  00A0               	movwf	___ftdiv@f2
  4331  0322  3020               	movlw	32
  4332  0323  00A1               	movwf	___ftdiv@f2+1
  4333  0324  3040               	movlw	64
  4334  0325  00A2               	movwf	___ftdiv@f2+2
  4335  0326  1683               	bsf	3,5	;RP0=1, select bank1
  4336  0327  1303               	bcf	3,6	;RP1=0, select bank1
  4337  0328  0845               	movf	main@Lspeed^(0+128),w
  4338  0329  1283               	bcf	3,5	;RP0=0, select bank0
  4339  032A  1303               	bcf	3,6	;RP1=0, select bank0
  4340  032B  00B0               	movwf	___ftneg@f1
  4341  032C  1683               	bsf	3,5	;RP0=1, select bank1
  4342  032D  1303               	bcf	3,6	;RP1=0, select bank1
  4343  032E  0846               	movf	(main@Lspeed+1)^(0+128),w
  4344  032F  1283               	bcf	3,5	;RP0=0, select bank0
  4345  0330  1303               	bcf	3,6	;RP1=0, select bank0
  4346  0331  00B1               	movwf	___ftneg@f1+1
  4347  0332  1683               	bsf	3,5	;RP0=1, select bank1
  4348  0333  1303               	bcf	3,6	;RP1=0, select bank1
  4349  0334  0847               	movf	(main@Lspeed+2)^(0+128),w
  4350  0335  1283               	bcf	3,5	;RP0=0, select bank0
  4351  0336  1303               	bcf	3,6	;RP1=0, select bank0
  4352  0337  00B2               	movwf	___ftneg@f1+2
  4353  0338  120A  118A  2009  120A  118A  	fcall	___ftneg
  4354  033D  1283               	bcf	3,5	;RP0=0, select bank0
  4355  033E  1303               	bcf	3,6	;RP1=0, select bank0
  4356  033F  0830               	movf	?___ftneg,w
  4357  0340  00A3               	movwf	___ftdiv@f1
  4358  0341  0831               	movf	?___ftneg+1,w
  4359  0342  00A4               	movwf	___ftdiv@f1+1
  4360  0343  0832               	movf	?___ftneg+2,w
  4361  0344  00A5               	movwf	___ftdiv@f1+2
  4362  0345  120A  158A  24C2  120A  118A  	fcall	___ftdiv
  4363  034A  1283               	bcf	3,5	;RP0=0, select bank0
  4364  034B  1303               	bcf	3,6	;RP1=0, select bank0
  4365  034C  0820               	movf	?___ftdiv,w
  4366  034D  1683               	bsf	3,5	;RP0=1, select bank1
  4367  034E  1303               	bcf	3,6	;RP1=0, select bank1
  4368  034F  00C5               	movwf	main@Lspeed^(0+128)
  4369  0350  1283               	bcf	3,5	;RP0=0, select bank0
  4370  0351  1303               	bcf	3,6	;RP1=0, select bank0
  4371  0352  0821               	movf	?___ftdiv+1,w
  4372  0353  1683               	bsf	3,5	;RP0=1, select bank1
  4373  0354  1303               	bcf	3,6	;RP1=0, select bank1
  4374  0355  00C6               	movwf	(main@Lspeed+1)^(0+128)
  4375  0356  1283               	bcf	3,5	;RP0=0, select bank0
  4376  0357  1303               	bcf	3,6	;RP1=0, select bank0
  4377  0358  0822               	movf	?___ftdiv+2,w
  4378  0359  1683               	bsf	3,5	;RP0=1, select bank1
  4379  035A  1303               	bcf	3,6	;RP1=0, select bank1
  4380  035B  00C7               	movwf	(main@Lspeed+2)^(0+128)
  4381  035C                     l135:	
  4382                           
  4383                           ;maincode.c: 287: }
  4384                           ;maincode.c: 288: PWM1_Duty(Lspeed);
  4385  035C  1683               	bsf	3,5	;RP0=1, select bank1
  4386  035D  1303               	bcf	3,6	;RP1=0, select bank1
  4387  035E  0845               	movf	main@Lspeed^(0+128),w
  4388  035F  1283               	bcf	3,5	;RP0=0, select bank0
  4389  0360  1303               	bcf	3,6	;RP1=0, select bank0
  4390  0361  00D0               	movwf	___fttol@f1
  4391  0362  1683               	bsf	3,5	;RP0=1, select bank1
  4392  0363  1303               	bcf	3,6	;RP1=0, select bank1
  4393  0364  0846               	movf	(main@Lspeed+1)^(0+128),w
  4394  0365  1283               	bcf	3,5	;RP0=0, select bank0
  4395  0366  1303               	bcf	3,6	;RP1=0, select bank0
  4396  0367  00D1               	movwf	___fttol@f1+1
  4397  0368  1683               	bsf	3,5	;RP0=1, select bank1
  4398  0369  1303               	bcf	3,6	;RP1=0, select bank1
  4399  036A  0847               	movf	(main@Lspeed+2)^(0+128),w
  4400  036B  1283               	bcf	3,5	;RP0=0, select bank0
  4401  036C  1303               	bcf	3,6	;RP1=0, select bank0
  4402  036D  00D2               	movwf	___fttol@f1+2
  4403  036E  120A  158A  230F  120A  118A  	fcall	___fttol
  4404  0373  1283               	bcf	3,5	;RP0=0, select bank0
  4405  0374  1303               	bcf	3,6	;RP1=0, select bank0
  4406  0375  0851               	movf	?___fttol+1,w
  4407  0376  1683               	bsf	3,5	;RP0=1, select bank1
  4408  0377  1303               	bcf	3,6	;RP1=0, select bank1
  4409  0378  00B8               	movwf	(_main$497+1)^(0+128)
  4410  0379  1283               	bcf	3,5	;RP0=0, select bank0
  4411  037A  1303               	bcf	3,6	;RP1=0, select bank0
  4412  037B  0850               	movf	?___fttol,w
  4413  037C  1683               	bsf	3,5	;RP0=1, select bank1
  4414  037D  1303               	bcf	3,6	;RP1=0, select bank1
  4415  037E  00B7               	movwf	_main$497^(0+128)
  4416                           
  4417                           ;maincode.c: 287: }
  4418                           ;maincode.c: 288: PWM1_Duty(Lspeed);
  4419  037F  0838               	movf	(_main$497+1)^(0+128),w
  4420  0380  1283               	bcf	3,5	;RP0=0, select bank0
  4421  0381  1303               	bcf	3,6	;RP1=0, select bank0
  4422  0382  00DF               	movwf	PWM1_Duty@duty+1
  4423  0383  1683               	bsf	3,5	;RP0=1, select bank1
  4424  0384  1303               	bcf	3,6	;RP1=0, select bank1
  4425  0385  0837               	movf	_main$497^(0+128),w
  4426  0386  1283               	bcf	3,5	;RP0=0, select bank0
  4427  0387  1303               	bcf	3,6	;RP1=0, select bank0
  4428  0388  00DE               	movwf	PWM1_Duty@duty
  4429  0389  120A  158A  22A2  120A  118A  	fcall	_PWM1_Duty
  4430                           
  4431                           ;maincode.c: 289: PWM2_Duty(Rspeed);
  4432  038E  1683               	bsf	3,5	;RP0=1, select bank1
  4433  038F  1303               	bcf	3,6	;RP1=0, select bank1
  4434  0390  0848               	movf	main@Rspeed^(0+128),w
  4435  0391  1283               	bcf	3,5	;RP0=0, select bank0
  4436  0392  1303               	bcf	3,6	;RP1=0, select bank0
  4437  0393  00D0               	movwf	___fttol@f1
  4438  0394  1683               	bsf	3,5	;RP0=1, select bank1
  4439  0395  1303               	bcf	3,6	;RP1=0, select bank1
  4440  0396  0849               	movf	(main@Rspeed+1)^(0+128),w
  4441  0397  1283               	bcf	3,5	;RP0=0, select bank0
  4442  0398  1303               	bcf	3,6	;RP1=0, select bank0
  4443  0399  00D1               	movwf	___fttol@f1+1
  4444  039A  1683               	bsf	3,5	;RP0=1, select bank1
  4445  039B  1303               	bcf	3,6	;RP1=0, select bank1
  4446  039C  084A               	movf	(main@Rspeed+2)^(0+128),w
  4447  039D  1283               	bcf	3,5	;RP0=0, select bank0
  4448  039E  1303               	bcf	3,6	;RP1=0, select bank0
  4449  039F  00D2               	movwf	___fttol@f1+2
  4450  03A0  120A  158A  230F  120A  118A  	fcall	___fttol
  4451  03A5  1283               	bcf	3,5	;RP0=0, select bank0
  4452  03A6  1303               	bcf	3,6	;RP1=0, select bank0
  4453  03A7  0851               	movf	?___fttol+1,w
  4454  03A8  1683               	bsf	3,5	;RP0=1, select bank1
  4455  03A9  1303               	bcf	3,6	;RP1=0, select bank1
  4456  03AA  00BA               	movwf	(_main$498+1)^(0+128)
  4457  03AB  1283               	bcf	3,5	;RP0=0, select bank0
  4458  03AC  1303               	bcf	3,6	;RP1=0, select bank0
  4459  03AD  0850               	movf	?___fttol,w
  4460  03AE  1683               	bsf	3,5	;RP0=1, select bank1
  4461  03AF  1303               	bcf	3,6	;RP1=0, select bank1
  4462  03B0  00B9               	movwf	_main$498^(0+128)
  4463                           
  4464                           ;maincode.c: 289: PWM2_Duty(Rspeed);
  4465  03B1  083A               	movf	(_main$498+1)^(0+128),w
  4466  03B2  1283               	bcf	3,5	;RP0=0, select bank0
  4467  03B3  1303               	bcf	3,6	;RP1=0, select bank0
  4468  03B4  00DF               	movwf	PWM2_Duty@duty+1
  4469  03B5  1683               	bsf	3,5	;RP0=1, select bank1
  4470  03B6  1303               	bcf	3,6	;RP1=0, select bank1
  4471  03B7  0839               	movf	_main$498^(0+128),w
  4472  03B8  1283               	bcf	3,5	;RP0=0, select bank0
  4473  03B9  1303               	bcf	3,6	;RP1=0, select bank0
  4474  03BA  00DE               	movwf	PWM2_Duty@duty
  4475  03BB  120A  118A  2013  120A  118A  	fcall	_PWM2_Duty
  4476                           
  4477                           ;maincode.c: 290: _delay((unsigned long)((20)*(16000000/4000.0)));
  4478  03C0  3068               	movlw	104
  4479  03C1  1283               	bcf	3,5	;RP0=0, select bank0
  4480  03C2  1303               	bcf	3,6	;RP1=0, select bank0
  4481  03C3  00E3               	movwf	??_main+1
  4482  03C4  30E3               	movlw	227
  4483  03C5  00E2               	movwf	??_main
  4484  03C6                     u3107:	
  4485  03C6  0BE2               	decfsz	??_main,f
  4486  03C7  2BC6               	goto	u3107
  4487  03C8  0BE3               	decfsz	??_main+1,f
  4488  03C9  2BC6               	goto	u3107
  4489  03CA  2BCB               	nop2
  4490                           
  4491                           ;maincode.c: 291: RD0=1;
  4492  03CB  1283               	bcf	3,5	;RP0=0, select bank0
  4493  03CC  1303               	bcf	3,6	;RP1=0, select bank0
  4494  03CD  1408               	bsf	8,0	;volatile
  4495                           
  4496                           ;maincode.c: 292: RD1=0;
  4497  03CE  1088               	bcf	8,1	;volatile
  4498                           
  4499                           ;maincode.c: 293: RD2=1;
  4500  03CF  1508               	bsf	8,2	;volatile
  4501                           
  4502                           ;maincode.c: 294: RD3=0;
  4503  03D0  1188               	bcf	8,3	;volatile
  4504  03D1  3001               	movlw	1
  4505  03D2  1683               	bsf	3,5	;RP0=1, select bank1
  4506  03D3  1303               	bcf	3,6	;RP1=0, select bank1
  4507  03D4  07A2               	addwf	main@i^(0+128),f
  4508  03D5  1803               	skipnc
  4509  03D6  0AA3               	incf	(main@i+1)^(0+128),f
  4510  03D7  3000               	movlw	0
  4511  03D8  07A3               	addwf	(main@i+1)^(0+128),f
  4512  03D9  0823               	movf	(main@i+1)^(0+128),w
  4513  03DA  3A80               	xorlw	128
  4514  03DB  00FF               	movwf	127
  4515  03DC  3080               	movlw	128
  4516  03DD  027F               	subwf	127,w
  4517  03DE  1D03               	skipz
  4518  03DF  2BE2               	goto	u2955
  4519  03E0  3014               	movlw	20
  4520  03E1  0222               	subwf	main@i^(0+128),w
  4521  03E2                     u2955:	
  4522  03E2  1C03               	skipc
  4523  03E3  2FF9               	goto	L9
  4524  03E4                     l124:	
  4525                           
  4526                           ;maincode.c: 295: }
  4527                           ;maincode.c: 296: }
  4528                           ;maincode.c: 297: if((RB0==0)&&(RD5==0)){
  4529  03E4  1283               	bcf	3,5	;RP0=0, select bank0
  4530  03E5  1303               	bcf	3,6	;RP1=0, select bank0
  4531  03E6  1C06               	btfss	6,0	;volatile
  4532  03E7  1A88               	btfsc	8,5	;volatile
  4533  03E8  2F81               	goto	l2096
  4534                           
  4535                           ;maincode.c: 298: square=1;
  4536  03E9  3001               	movlw	1
  4537  03EA  1683               	bsf	3,5	;RP0=1, select bank1
  4538  03EB  1303               	bcf	3,6	;RP1=0, select bank1
  4539  03EC  00A0               	movwf	main@square^(0+128)
  4540  03ED  3000               	movlw	0
  4541  03EE  00A1               	movwf	(main@square^(0+128)+1)
  4542                           
  4543                           ;maincode.c: 299: int i;
  4544                           ;maincode.c: 300: for(i=0;i<20;i++){
  4545  03EF  01A4               	clrf	main@i_93^(0+128)
  4546  03F0  01A5               	clrf	(main@i_93+1)^(0+128)
  4547  03F1  0825               	movf	(main@i_93+1)^(0+128),w
  4548  03F2  3A80               	xorlw	128
  4549  03F3  00FF               	movwf	127
  4550  03F4  3080               	movlw	128
  4551  03F5  027F               	subwf	127,w
  4552  03F6  1D03               	skipz
  4553  03F7  2BFA               	goto	u2985
  4554  03F8  3014               	movlw	20
  4555  03F9  0224               	subwf	main@i_93^(0+128),w
  4556  03FA                     u2985:	
  4557  03FA  1803               	btfsc	3,0
  4558  03FB  2F81               	goto	l2096
  4559  03FC                     l2020:	
  4560                           
  4561                           ;maincode.c: 301: Lspeed=700;
  4562  03FC  3000               	movlw	0
  4563  03FD  1683               	bsf	3,5	;RP0=1, select bank1
  4564  03FE  1303               	bcf	3,6	;RP1=0, select bank1
  4565  03FF  00C5               	movwf	main@Lspeed^(0+128)
  4566  0400  302F               	movlw	47
  4567  0401  00C6               	movwf	(main@Lspeed+1)^(0+128)
  4568  0402  3044               	movlw	68
  4569  0403  00C7               	movwf	(main@Lspeed+2)^(0+128)
  4570                           
  4571                           ;maincode.c: 302: Rspeed=700; n=0;
  4572  0404  3000               	movlw	0
  4573  0405  00C8               	movwf	main@Rspeed^(0+128)
  4574  0406  302F               	movlw	47
  4575  0407  00C9               	movwf	(main@Rspeed+1)^(0+128)
  4576  0408  3044               	movlw	68
  4577  0409  00CA               	movwf	(main@Rspeed+2)^(0+128)
  4578  040A  01CB               	clrf	main@n^(0+128)
  4579  040B  01CC               	clrf	(main@n+1)^(0+128)
  4580                           
  4581                           ;maincode.c: 303: sum=0;
  4582  040C  01C3               	clrf	main@sum^(0+128)
  4583  040D  01C4               	clrf	(main@sum+1)^(0+128)
  4584                           
  4585                           ;maincode.c: 304: if(RB3==0){
  4586  040E  1283               	bcf	3,5	;RP0=0, select bank0
  4587  040F  1303               	bcf	3,6	;RP1=0, select bank0
  4588  0410  1986               	btfsc	6,3	;volatile
  4589  0411  2C28               	goto	l2032
  4590                           
  4591                           ;maincode.c: 305: n=n+1;
  4592  0412  1683               	bsf	3,5	;RP0=1, select bank1
  4593  0413  1303               	bcf	3,6	;RP1=0, select bank1
  4594  0414  084B               	movf	main@n^(0+128),w
  4595  0415  3E01               	addlw	1
  4596  0416  00CB               	movwf	main@n^(0+128)
  4597  0417  084C               	movf	(main@n+1)^(0+128),w
  4598  0418  1803               	skipnc
  4599  0419  3E01               	addlw	1
  4600  041A  3E00               	addlw	0
  4601  041B  00CC               	movwf	(main@n+1)^(0+128)
  4602                           
  4603                           ;maincode.c: 306: sum=sum-9;
  4604  041C  0843               	movf	main@sum^(0+128),w
  4605  041D  3EF7               	addlw	247
  4606  041E  00C3               	movwf	main@sum^(0+128)
  4607  041F  0844               	movf	(main@sum+1)^(0+128),w
  4608  0420  1803               	skipnc
  4609  0421  3E01               	addlw	1
  4610  0422  3EFF               	addlw	255
  4611  0423  00C4               	movwf	(main@sum+1)^(0+128)
  4612                           
  4613                           ;maincode.c: 307: LineOut=1;
  4614  0424  3001               	movlw	1
  4615  0425  00B5               	movwf	main@LineOut^(0+128)
  4616  0426  3000               	movlw	0
  4617  0427  00B6               	movwf	(main@LineOut^(0+128)+1)
  4618  0428                     l2032:	
  4619                           
  4620                           ;maincode.c: 308: }
  4621                           ;maincode.c: 309: if(RB2==0){
  4622  0428  1283               	bcf	3,5	;RP0=0, select bank0
  4623  0429  1906               	btfsc	6,2	;volatile
  4624  042A  2C41               	goto	l2038
  4625                           
  4626                           ;maincode.c: 310: n=n+1;
  4627  042B  1683               	bsf	3,5	;RP0=1, select bank1
  4628  042C  1303               	bcf	3,6	;RP1=0, select bank1
  4629  042D  084B               	movf	main@n^(0+128),w
  4630  042E  3E01               	addlw	1
  4631  042F  00CB               	movwf	main@n^(0+128)
  4632  0430  084C               	movf	(main@n+1)^(0+128),w
  4633  0431  1803               	skipnc
  4634  0432  3E01               	addlw	1
  4635  0433  3E00               	addlw	0
  4636  0434  00CC               	movwf	(main@n+1)^(0+128)
  4637                           
  4638                           ;maincode.c: 311: sum=sum-5;
  4639  0435  0843               	movf	main@sum^(0+128),w
  4640  0436  3EFB               	addlw	251
  4641  0437  00C3               	movwf	main@sum^(0+128)
  4642  0438  0844               	movf	(main@sum+1)^(0+128),w
  4643  0439  1803               	skipnc
  4644  043A  3E01               	addlw	1
  4645  043B  3EFF               	addlw	255
  4646  043C  00C4               	movwf	(main@sum+1)^(0+128)
  4647                           
  4648                           ;maincode.c: 312: LineOut=1;
  4649  043D  3001               	movlw	1
  4650  043E  00B5               	movwf	main@LineOut^(0+128)
  4651  043F  3000               	movlw	0
  4652  0440  00B6               	movwf	(main@LineOut^(0+128)+1)
  4653  0441                     l2038:	
  4654                           
  4655                           ;maincode.c: 313: }
  4656                           ;maincode.c: 314: if(RB1==0){
  4657  0441  1283               	bcf	3,5	;RP0=0, select bank0
  4658  0442  1886               	btfsc	6,1	;volatile
  4659  0443  2C5A               	goto	l2044
  4660                           
  4661                           ;maincode.c: 315: n=n+1;
  4662  0444  1683               	bsf	3,5	;RP0=1, select bank1
  4663  0445  1303               	bcf	3,6	;RP1=0, select bank1
  4664  0446  084B               	movf	main@n^(0+128),w
  4665  0447  3E01               	addlw	1
  4666  0448  00CB               	movwf	main@n^(0+128)
  4667  0449  084C               	movf	(main@n+1)^(0+128),w
  4668  044A  1803               	skipnc
  4669  044B  3E01               	addlw	1
  4670  044C  3E00               	addlw	0
  4671  044D  00CC               	movwf	(main@n+1)^(0+128)
  4672                           
  4673                           ;maincode.c: 316: sum=sum-3;
  4674  044E  0843               	movf	main@sum^(0+128),w
  4675  044F  3EFD               	addlw	253
  4676  0450  00C3               	movwf	main@sum^(0+128)
  4677  0451  0844               	movf	(main@sum+1)^(0+128),w
  4678  0452  1803               	skipnc
  4679  0453  3E01               	addlw	1
  4680  0454  3EFF               	addlw	255
  4681  0455  00C4               	movwf	(main@sum+1)^(0+128)
  4682                           
  4683                           ;maincode.c: 317: LineOut=1;
  4684  0456  3001               	movlw	1
  4685  0457  00B5               	movwf	main@LineOut^(0+128)
  4686  0458  3000               	movlw	0
  4687  0459  00B6               	movwf	(main@LineOut^(0+128)+1)
  4688  045A                     l2044:	
  4689                           
  4690                           ;maincode.c: 318: }
  4691                           ;maincode.c: 319: if(RB0==0){
  4692  045A  1283               	bcf	3,5	;RP0=0, select bank0
  4693  045B  1806               	btfsc	6,0	;volatile
  4694  045C  2C67               	goto	l142
  4695                           
  4696                           ;maincode.c: 320: n=n+1;
  4697  045D  1683               	bsf	3,5	;RP0=1, select bank1
  4698  045E  1303               	bcf	3,6	;RP1=0, select bank1
  4699  045F  084B               	movf	main@n^(0+128),w
  4700  0460  3E01               	addlw	1
  4701  0461  00CB               	movwf	main@n^(0+128)
  4702  0462  084C               	movf	(main@n+1)^(0+128),w
  4703  0463  1803               	skipnc
  4704  0464  3E01               	addlw	1
  4705  0465  3E00               	addlw	0
  4706  0466  00CC               	movwf	(main@n+1)^(0+128)
  4707  0467                     l142:	
  4708                           
  4709                           ;maincode.c: 322: }
  4710                           ;maincode.c: 323: if(n!=0){
  4711  0467  1683               	bsf	3,5	;RP0=1, select bank1
  4712  0468  1303               	bcf	3,6	;RP1=0, select bank1
  4713  0469  084B               	movf	main@n^(0+128),w
  4714  046A  044C               	iorwf	(main@n+1)^(0+128),w
  4715  046B  1903               	btfsc	3,2
  4716  046C  2CBE               	goto	l2052
  4717                           
  4718                           ;maincode.c: 324: position=sum/n;
  4719  046D  084C               	movf	(main@n+1)^(0+128),w
  4720  046E  00F1               	movwf	___awdiv@divisor+1
  4721  046F  084B               	movf	main@n^(0+128),w
  4722  0470  00F0               	movwf	___awdiv@divisor
  4723  0471  0844               	movf	(main@sum+1)^(0+128),w
  4724  0472  00F3               	movwf	___awdiv@dividend+1
  4725  0473  0843               	movf	main@sum^(0+128),w
  4726  0474  00F2               	movwf	___awdiv@dividend
  4727  0475  120A  158A  2180  120A  118A  	fcall	___awdiv
  4728  047A  0871               	movf	?___awdiv+1,w
  4729  047B  1283               	bcf	3,5	;RP0=0, select bank0
  4730  047C  1303               	bcf	3,6	;RP1=0, select bank0
  4731  047D  00A9               	movwf	___awtoft@c+1
  4732  047E  0870               	movf	?___awdiv,w
  4733  047F  00A8               	movwf	___awtoft@c
  4734  0480  120A  158A  20B0  120A  118A  	fcall	___awtoft
  4735  0485  1283               	bcf	3,5	;RP0=0, select bank0
  4736  0486  1303               	bcf	3,6	;RP1=0, select bank0
  4737  0487  0828               	movf	?___awtoft,w
  4738  0488  1683               	bsf	3,5	;RP0=1, select bank1
  4739  0489  1303               	bcf	3,6	;RP1=0, select bank1
  4740  048A  00AC               	movwf	main@position^(0+128)
  4741  048B  1283               	bcf	3,5	;RP0=0, select bank0
  4742  048C  1303               	bcf	3,6	;RP1=0, select bank0
  4743  048D  0829               	movf	?___awtoft+1,w
  4744  048E  1683               	bsf	3,5	;RP0=1, select bank1
  4745  048F  1303               	bcf	3,6	;RP1=0, select bank1
  4746  0490  00AD               	movwf	(main@position+1)^(0+128)
  4747  0491  1283               	bcf	3,5	;RP0=0, select bank0
  4748  0492  1303               	bcf	3,6	;RP1=0, select bank0
  4749  0493  082A               	movf	?___awtoft+2,w
  4750  0494  1683               	bsf	3,5	;RP0=1, select bank1
  4751  0495  1303               	bcf	3,6	;RP1=0, select bank1
  4752  0496  00AE               	movwf	(main@position+2)^(0+128)
  4753                           
  4754                           ;maincode.c: 325: error=0-position;
  4755  0497  082C               	movf	main@position^(0+128),w
  4756  0498  1283               	bcf	3,5	;RP0=0, select bank0
  4757  0499  1303               	bcf	3,6	;RP1=0, select bank0
  4758  049A  00B0               	movwf	___ftneg@f1
  4759  049B  1683               	bsf	3,5	;RP0=1, select bank1
  4760  049C  1303               	bcf	3,6	;RP1=0, select bank1
  4761  049D  082D               	movf	(main@position+1)^(0+128),w
  4762  049E  1283               	bcf	3,5	;RP0=0, select bank0
  4763  049F  1303               	bcf	3,6	;RP1=0, select bank0
  4764  04A0  00B1               	movwf	___ftneg@f1+1
  4765  04A1  1683               	bsf	3,5	;RP0=1, select bank1
  4766  04A2  1303               	bcf	3,6	;RP1=0, select bank1
  4767  04A3  082E               	movf	(main@position+2)^(0+128),w
  4768  04A4  1283               	bcf	3,5	;RP0=0, select bank0
  4769  04A5  1303               	bcf	3,6	;RP1=0, select bank0
  4770  04A6  00B2               	movwf	___ftneg@f1+2
  4771  04A7  120A  118A  2009  120A  118A  	fcall	___ftneg
  4772  04AC  1283               	bcf	3,5	;RP0=0, select bank0
  4773  04AD  1303               	bcf	3,6	;RP1=0, select bank0
  4774  04AE  0830               	movf	?___ftneg,w
  4775  04AF  1683               	bsf	3,5	;RP0=1, select bank1
  4776  04B0  1303               	bcf	3,6	;RP1=0, select bank1
  4777  04B1  00BD               	movwf	main@error^(0+128)
  4778  04B2  1283               	bcf	3,5	;RP0=0, select bank0
  4779  04B3  1303               	bcf	3,6	;RP1=0, select bank0
  4780  04B4  0831               	movf	?___ftneg+1,w
  4781  04B5  1683               	bsf	3,5	;RP0=1, select bank1
  4782  04B6  1303               	bcf	3,6	;RP1=0, select bank1
  4783  04B7  00BE               	movwf	(main@error+1)^(0+128)
  4784  04B8  1283               	bcf	3,5	;RP0=0, select bank0
  4785  04B9  1303               	bcf	3,6	;RP1=0, select bank0
  4786  04BA  0832               	movf	?___ftneg+2,w
  4787  04BB  1683               	bsf	3,5	;RP0=1, select bank1
  4788  04BC  1303               	bcf	3,6	;RP1=0, select bank1
  4789  04BD  00BF               	movwf	(main@error+2)^(0+128)
  4790  04BE                     l2052:	
  4791                           
  4792                           ;maincode.c: 326: }
  4793                           ;maincode.c: 327: LastOut=1;
  4794  04BE  3001               	movlw	1
  4795  04BF  00BB               	movwf	main@LastOut^(0+128)
  4796  04C0  3000               	movlw	0
  4797  04C1  00BC               	movwf	(main@LastOut^(0+128)+1)
  4798                           
  4799                           ;maincode.c: 328: adjustment = Kp*error + Kd*(error - lasterror);
  4800  04C2  0829               	movf	main@Kd^(0+128),w
  4801  04C3  1283               	bcf	3,5	;RP0=0, select bank0
  4802  04C4  1303               	bcf	3,6	;RP1=0, select bank0
  4803  04C5  00C0               	movwf	___ftmul@f1
  4804  04C6  1683               	bsf	3,5	;RP0=1, select bank1
  4805  04C7  1303               	bcf	3,6	;RP1=0, select bank1
  4806  04C8  082A               	movf	(main@Kd+1)^(0+128),w
  4807  04C9  1283               	bcf	3,5	;RP0=0, select bank0
  4808  04CA  1303               	bcf	3,6	;RP1=0, select bank0
  4809  04CB  00C1               	movwf	___ftmul@f1+1
  4810  04CC  1683               	bsf	3,5	;RP0=1, select bank1
  4811  04CD  1303               	bcf	3,6	;RP1=0, select bank1
  4812  04CE  082B               	movf	(main@Kd+2)^(0+128),w
  4813  04CF  1283               	bcf	3,5	;RP0=0, select bank0
  4814  04D0  1303               	bcf	3,6	;RP1=0, select bank0
  4815  04D1  00C2               	movwf	___ftmul@f1+2
  4816  04D2  1683               	bsf	3,5	;RP0=1, select bank1
  4817  04D3  1303               	bcf	3,6	;RP1=0, select bank1
  4818  04D4  083D               	movf	main@error^(0+128),w
  4819  04D5  1283               	bcf	3,5	;RP0=0, select bank0
  4820  04D6  1303               	bcf	3,6	;RP1=0, select bank0
  4821  04D7  00B3               	movwf	___ftadd@f1
  4822  04D8  1683               	bsf	3,5	;RP0=1, select bank1
  4823  04D9  1303               	bcf	3,6	;RP1=0, select bank1
  4824  04DA  083E               	movf	(main@error+1)^(0+128),w
  4825  04DB  1283               	bcf	3,5	;RP0=0, select bank0
  4826  04DC  1303               	bcf	3,6	;RP1=0, select bank0
  4827  04DD  00B4               	movwf	___ftadd@f1+1
  4828  04DE  1683               	bsf	3,5	;RP0=1, select bank1
  4829  04DF  1303               	bcf	3,6	;RP1=0, select bank1
  4830  04E0  083F               	movf	(main@error+2)^(0+128),w
  4831  04E1  1283               	bcf	3,5	;RP0=0, select bank0
  4832  04E2  1303               	bcf	3,6	;RP1=0, select bank0
  4833  04E3  00B5               	movwf	___ftadd@f1+2
  4834  04E4  1683               	bsf	3,5	;RP0=1, select bank1
  4835  04E5  1303               	bcf	3,6	;RP1=0, select bank1
  4836  04E6  082F               	movf	main@lasterror^(0+128),w
  4837  04E7  1283               	bcf	3,5	;RP0=0, select bank0
  4838  04E8  1303               	bcf	3,6	;RP1=0, select bank0
  4839  04E9  00B0               	movwf	___ftneg@f1
  4840  04EA  1683               	bsf	3,5	;RP0=1, select bank1
  4841  04EB  1303               	bcf	3,6	;RP1=0, select bank1
  4842  04EC  0830               	movf	(main@lasterror+1)^(0+128),w
  4843  04ED  1283               	bcf	3,5	;RP0=0, select bank0
  4844  04EE  1303               	bcf	3,6	;RP1=0, select bank0
  4845  04EF  00B1               	movwf	___ftneg@f1+1
  4846  04F0  1683               	bsf	3,5	;RP0=1, select bank1
  4847  04F1  1303               	bcf	3,6	;RP1=0, select bank1
  4848  04F2  0831               	movf	(main@lasterror+2)^(0+128),w
  4849  04F3  1283               	bcf	3,5	;RP0=0, select bank0
  4850  04F4  1303               	bcf	3,6	;RP1=0, select bank0
  4851  04F5  00B2               	movwf	___ftneg@f1+2
  4852  04F6  120A  118A  2009  120A  118A  	fcall	___ftneg
  4853  04FB  1283               	bcf	3,5	;RP0=0, select bank0
  4854  04FC  1303               	bcf	3,6	;RP1=0, select bank0
  4855  04FD  0830               	movf	?___ftneg,w
  4856  04FE  00B6               	movwf	___ftadd@f2
  4857  04FF  0831               	movf	?___ftneg+1,w
  4858  0500  00B7               	movwf	___ftadd@f2+1
  4859  0501  0832               	movf	?___ftneg+2,w
  4860  0502  00B8               	movwf	___ftadd@f2+2
  4861  0503  120A  118A  2153  120A  118A  	fcall	___ftadd
  4862  0508  1283               	bcf	3,5	;RP0=0, select bank0
  4863  0509  1303               	bcf	3,6	;RP1=0, select bank0
  4864  050A  0833               	movf	?___ftadd,w
  4865  050B  00C3               	movwf	___ftmul@f2
  4866  050C  0834               	movf	?___ftadd+1,w
  4867  050D  00C4               	movwf	___ftmul@f2+1
  4868  050E  0835               	movf	?___ftadd+2,w
  4869  050F  00C5               	movwf	___ftmul@f2+2
  4870  0510  120A  118A  2080  120A  118A  	fcall	___ftmul
  4871  0515  1283               	bcf	3,5	;RP0=0, select bank0
  4872  0516  1303               	bcf	3,6	;RP1=0, select bank0
  4873  0517  0840               	movf	?___ftmul,w
  4874  0518  1683               	bsf	3,5	;RP0=1, select bank1
  4875  0519  1303               	bcf	3,6	;RP1=0, select bank1
  4876  051A  00B2               	movwf	_main$496^(0+128)
  4877  051B  1283               	bcf	3,5	;RP0=0, select bank0
  4878  051C  1303               	bcf	3,6	;RP1=0, select bank0
  4879  051D  0841               	movf	?___ftmul+1,w
  4880  051E  1683               	bsf	3,5	;RP0=1, select bank1
  4881  051F  1303               	bcf	3,6	;RP1=0, select bank1
  4882  0520  00B3               	movwf	(_main$496+1)^(0+128)
  4883  0521  1283               	bcf	3,5	;RP0=0, select bank0
  4884  0522  1303               	bcf	3,6	;RP1=0, select bank0
  4885  0523  0842               	movf	?___ftmul+2,w
  4886  0524  1683               	bsf	3,5	;RP0=1, select bank1
  4887  0525  1303               	bcf	3,6	;RP1=0, select bank1
  4888  0526  00B4               	movwf	(_main$496+2)^(0+128)
  4889                           
  4890                           ;maincode.c: 328: adjustment = Kp*error + Kd*(error - lasterror);
  4891  0527  0832               	movf	_main$496^(0+128),w
  4892  0528  1283               	bcf	3,5	;RP0=0, select bank0
  4893  0529  1303               	bcf	3,6	;RP1=0, select bank0
  4894  052A  00B3               	movwf	___ftadd@f1
  4895  052B  1683               	bsf	3,5	;RP0=1, select bank1
  4896  052C  1303               	bcf	3,6	;RP1=0, select bank1
  4897  052D  0833               	movf	(_main$496+1)^(0+128),w
  4898  052E  1283               	bcf	3,5	;RP0=0, select bank0
  4899  052F  1303               	bcf	3,6	;RP1=0, select bank0
  4900  0530  00B4               	movwf	___ftadd@f1+1
  4901  0531  1683               	bsf	3,5	;RP0=1, select bank1
  4902  0532  1303               	bcf	3,6	;RP1=0, select bank1
  4903  0533  0834               	movf	(_main$496+2)^(0+128),w
  4904  0534  1283               	bcf	3,5	;RP0=0, select bank0
  4905  0535  1303               	bcf	3,6	;RP1=0, select bank0
  4906  0536  00B5               	movwf	___ftadd@f1+2
  4907  0537  1683               	bsf	3,5	;RP0=1, select bank1
  4908  0538  1303               	bcf	3,6	;RP1=0, select bank1
  4909  0539  083D               	movf	main@error^(0+128),w
  4910  053A  1283               	bcf	3,5	;RP0=0, select bank0
  4911  053B  1303               	bcf	3,6	;RP1=0, select bank0
  4912  053C  00C0               	movwf	___ftmul@f1
  4913  053D  1683               	bsf	3,5	;RP0=1, select bank1
  4914  053E  1303               	bcf	3,6	;RP1=0, select bank1
  4915  053F  083E               	movf	(main@error+1)^(0+128),w
  4916  0540  1283               	bcf	3,5	;RP0=0, select bank0
  4917  0541  1303               	bcf	3,6	;RP1=0, select bank0
  4918  0542  00C1               	movwf	___ftmul@f1+1
  4919  0543  1683               	bsf	3,5	;RP0=1, select bank1
  4920  0544  1303               	bcf	3,6	;RP1=0, select bank1
  4921  0545  083F               	movf	(main@error+2)^(0+128),w
  4922  0546  1283               	bcf	3,5	;RP0=0, select bank0
  4923  0547  1303               	bcf	3,6	;RP1=0, select bank0
  4924  0548  00C2               	movwf	___ftmul@f1+2
  4925  0549  1683               	bsf	3,5	;RP0=1, select bank1
  4926  054A  1303               	bcf	3,6	;RP1=0, select bank1
  4927  054B  0826               	movf	main@Kp^(0+128),w
  4928  054C  1283               	bcf	3,5	;RP0=0, select bank0
  4929  054D  1303               	bcf	3,6	;RP1=0, select bank0
  4930  054E  00C3               	movwf	___ftmul@f2
  4931  054F  1683               	bsf	3,5	;RP0=1, select bank1
  4932  0550  1303               	bcf	3,6	;RP1=0, select bank1
  4933  0551  0827               	movf	(main@Kp+1)^(0+128),w
  4934  0552  1283               	bcf	3,5	;RP0=0, select bank0
  4935  0553  1303               	bcf	3,6	;RP1=0, select bank0
  4936  0554  00C4               	movwf	___ftmul@f2+1
  4937  0555  1683               	bsf	3,5	;RP0=1, select bank1
  4938  0556  1303               	bcf	3,6	;RP1=0, select bank1
  4939  0557  0828               	movf	(main@Kp+2)^(0+128),w
  4940  0558  1283               	bcf	3,5	;RP0=0, select bank0
  4941  0559  1303               	bcf	3,6	;RP1=0, select bank0
  4942  055A  00C5               	movwf	___ftmul@f2+2
  4943  055B  120A  118A  2080  120A  118A  	fcall	___ftmul
  4944  0560  1283               	bcf	3,5	;RP0=0, select bank0
  4945  0561  1303               	bcf	3,6	;RP1=0, select bank0
  4946  0562  0840               	movf	?___ftmul,w
  4947  0563  00B6               	movwf	___ftadd@f2
  4948  0564  0841               	movf	?___ftmul+1,w
  4949  0565  00B7               	movwf	___ftadd@f2+1
  4950  0566  0842               	movf	?___ftmul+2,w
  4951  0567  00B8               	movwf	___ftadd@f2+2
  4952  0568  120A  118A  2153  120A  118A  	fcall	___ftadd
  4953  056D  1283               	bcf	3,5	;RP0=0, select bank0
  4954  056E  1303               	bcf	3,6	;RP1=0, select bank0
  4955  056F  0833               	movf	?___ftadd,w
  4956  0570  1683               	bsf	3,5	;RP0=1, select bank1
  4957  0571  1303               	bcf	3,6	;RP1=0, select bank1
  4958  0572  00C0               	movwf	main@adjustment^(0+128)
  4959  0573  1283               	bcf	3,5	;RP0=0, select bank0
  4960  0574  1303               	bcf	3,6	;RP1=0, select bank0
  4961  0575  0834               	movf	?___ftadd+1,w
  4962  0576  1683               	bsf	3,5	;RP0=1, select bank1
  4963  0577  1303               	bcf	3,6	;RP1=0, select bank1
  4964  0578  00C1               	movwf	(main@adjustment+1)^(0+128)
  4965  0579  1283               	bcf	3,5	;RP0=0, select bank0
  4966  057A  1303               	bcf	3,6	;RP1=0, select bank0
  4967  057B  0835               	movf	?___ftadd+2,w
  4968  057C  1683               	bsf	3,5	;RP0=1, select bank1
  4969  057D  1303               	bcf	3,6	;RP1=0, select bank1
  4970  057E  00C2               	movwf	(main@adjustment+2)^(0+128)
  4971                           
  4972                           ;maincode.c: 329: lasterror=error;
  4973  057F  083D               	movf	main@error^(0+128),w
  4974  0580  00AF               	movwf	main@lasterror^(0+128)
  4975  0581  083E               	movf	(main@error+1)^(0+128),w
  4976  0582  00B0               	movwf	(main@lasterror+1)^(0+128)
  4977  0583  083F               	movf	(main@error+2)^(0+128),w
  4978  0584  00B1               	movwf	(main@lasterror+2)^(0+128)
  4979                           
  4980                           ;maincode.c: 330: Lspeed=Lspeed-adjustment;
  4981  0585  0845               	movf	main@Lspeed^(0+128),w
  4982  0586  1283               	bcf	3,5	;RP0=0, select bank0
  4983  0587  1303               	bcf	3,6	;RP1=0, select bank0
  4984  0588  00B3               	movwf	___ftadd@f1
  4985  0589  1683               	bsf	3,5	;RP0=1, select bank1
  4986  058A  1303               	bcf	3,6	;RP1=0, select bank1
  4987  058B  0846               	movf	(main@Lspeed+1)^(0+128),w
  4988  058C  1283               	bcf	3,5	;RP0=0, select bank0
  4989  058D  1303               	bcf	3,6	;RP1=0, select bank0
  4990  058E  00B4               	movwf	___ftadd@f1+1
  4991  058F  1683               	bsf	3,5	;RP0=1, select bank1
  4992  0590  1303               	bcf	3,6	;RP1=0, select bank1
  4993  0591  0847               	movf	(main@Lspeed+2)^(0+128),w
  4994  0592  1283               	bcf	3,5	;RP0=0, select bank0
  4995  0593  1303               	bcf	3,6	;RP1=0, select bank0
  4996  0594  00B5               	movwf	___ftadd@f1+2
  4997  0595  1683               	bsf	3,5	;RP0=1, select bank1
  4998  0596  1303               	bcf	3,6	;RP1=0, select bank1
  4999  0597  0840               	movf	main@adjustment^(0+128),w
  5000  0598  1283               	bcf	3,5	;RP0=0, select bank0
  5001  0599  1303               	bcf	3,6	;RP1=0, select bank0
  5002  059A  00B0               	movwf	___ftneg@f1
  5003  059B  1683               	bsf	3,5	;RP0=1, select bank1
  5004  059C  1303               	bcf	3,6	;RP1=0, select bank1
  5005  059D  0841               	movf	(main@adjustment+1)^(0+128),w
  5006  059E  1283               	bcf	3,5	;RP0=0, select bank0
  5007  059F  1303               	bcf	3,6	;RP1=0, select bank0
  5008  05A0  00B1               	movwf	___ftneg@f1+1
  5009  05A1  1683               	bsf	3,5	;RP0=1, select bank1
  5010  05A2  1303               	bcf	3,6	;RP1=0, select bank1
  5011  05A3  0842               	movf	(main@adjustment+2)^(0+128),w
  5012  05A4  1283               	bcf	3,5	;RP0=0, select bank0
  5013  05A5  1303               	bcf	3,6	;RP1=0, select bank0
  5014  05A6  00B2               	movwf	___ftneg@f1+2
  5015  05A7  120A  118A  2009  120A  118A  	fcall	___ftneg
  5016  05AC  1283               	bcf	3,5	;RP0=0, select bank0
  5017  05AD  1303               	bcf	3,6	;RP1=0, select bank0
  5018  05AE  0830               	movf	?___ftneg,w
  5019  05AF  00B6               	movwf	___ftadd@f2
  5020  05B0  0831               	movf	?___ftneg+1,w
  5021  05B1  00B7               	movwf	___ftadd@f2+1
  5022  05B2  0832               	movf	?___ftneg+2,w
  5023  05B3  00B8               	movwf	___ftadd@f2+2
  5024  05B4  120A  118A  2153  120A  118A  	fcall	___ftadd
  5025  05B9  1283               	bcf	3,5	;RP0=0, select bank0
  5026  05BA  1303               	bcf	3,6	;RP1=0, select bank0
  5027  05BB  0833               	movf	?___ftadd,w
  5028  05BC  1683               	bsf	3,5	;RP0=1, select bank1
  5029  05BD  1303               	bcf	3,6	;RP1=0, select bank1
  5030  05BE  00C5               	movwf	main@Lspeed^(0+128)
  5031  05BF  1283               	bcf	3,5	;RP0=0, select bank0
  5032  05C0  1303               	bcf	3,6	;RP1=0, select bank0
  5033  05C1  0834               	movf	?___ftadd+1,w
  5034  05C2  1683               	bsf	3,5	;RP0=1, select bank1
  5035  05C3  1303               	bcf	3,6	;RP1=0, select bank1
  5036  05C4  00C6               	movwf	(main@Lspeed+1)^(0+128)
  5037  05C5  1283               	bcf	3,5	;RP0=0, select bank0
  5038  05C6  1303               	bcf	3,6	;RP1=0, select bank0
  5039  05C7  0835               	movf	?___ftadd+2,w
  5040  05C8  1683               	bsf	3,5	;RP0=1, select bank1
  5041  05C9  1303               	bcf	3,6	;RP1=0, select bank1
  5042  05CA  00C7               	movwf	(main@Lspeed+2)^(0+128)
  5043                           
  5044                           ;maincode.c: 331: Rspeed=Rspeed+adjustment/5;
  5045  05CB  0848               	movf	main@Rspeed^(0+128),w
  5046  05CC  1283               	bcf	3,5	;RP0=0, select bank0
  5047  05CD  1303               	bcf	3,6	;RP1=0, select bank0
  5048  05CE  00B3               	movwf	___ftadd@f1
  5049  05CF  1683               	bsf	3,5	;RP0=1, select bank1
  5050  05D0  1303               	bcf	3,6	;RP1=0, select bank1
  5051  05D1  0849               	movf	(main@Rspeed+1)^(0+128),w
  5052  05D2  1283               	bcf	3,5	;RP0=0, select bank0
  5053  05D3  1303               	bcf	3,6	;RP1=0, select bank0
  5054  05D4  00B4               	movwf	___ftadd@f1+1
  5055  05D5  1683               	bsf	3,5	;RP0=1, select bank1
  5056  05D6  1303               	bcf	3,6	;RP1=0, select bank1
  5057  05D7  084A               	movf	(main@Rspeed+2)^(0+128),w
  5058  05D8  1283               	bcf	3,5	;RP0=0, select bank0
  5059  05D9  1303               	bcf	3,6	;RP1=0, select bank0
  5060  05DA  00B5               	movwf	___ftadd@f1+2
  5061  05DB  3000               	movlw	0
  5062  05DC  00A0               	movwf	___ftdiv@f2
  5063  05DD  30A0               	movlw	160
  5064  05DE  00A1               	movwf	___ftdiv@f2+1
  5065  05DF  3040               	movlw	64
  5066  05E0  00A2               	movwf	___ftdiv@f2+2
  5067  05E1  1683               	bsf	3,5	;RP0=1, select bank1
  5068  05E2  1303               	bcf	3,6	;RP1=0, select bank1
  5069  05E3  0840               	movf	main@adjustment^(0+128),w
  5070  05E4  1283               	bcf	3,5	;RP0=0, select bank0
  5071  05E5  1303               	bcf	3,6	;RP1=0, select bank0
  5072  05E6  00A3               	movwf	___ftdiv@f1
  5073  05E7  1683               	bsf	3,5	;RP0=1, select bank1
  5074  05E8  1303               	bcf	3,6	;RP1=0, select bank1
  5075  05E9  0841               	movf	(main@adjustment+1)^(0+128),w
  5076  05EA  1283               	bcf	3,5	;RP0=0, select bank0
  5077  05EB  1303               	bcf	3,6	;RP1=0, select bank0
  5078  05EC  00A4               	movwf	___ftdiv@f1+1
  5079  05ED  1683               	bsf	3,5	;RP0=1, select bank1
  5080  05EE  1303               	bcf	3,6	;RP1=0, select bank1
  5081  05EF  0842               	movf	(main@adjustment+2)^(0+128),w
  5082  05F0  1283               	bcf	3,5	;RP0=0, select bank0
  5083  05F1  1303               	bcf	3,6	;RP1=0, select bank0
  5084  05F2  00A5               	movwf	___ftdiv@f1+2
  5085  05F3  120A  158A  24C2  120A  118A  	fcall	___ftdiv
  5086  05F8  1283               	bcf	3,5	;RP0=0, select bank0
  5087  05F9  1303               	bcf	3,6	;RP1=0, select bank0
  5088  05FA  0820               	movf	?___ftdiv,w
  5089  05FB  00B6               	movwf	___ftadd@f2
  5090  05FC  0821               	movf	?___ftdiv+1,w
  5091  05FD  00B7               	movwf	___ftadd@f2+1
  5092  05FE  0822               	movf	?___ftdiv+2,w
  5093  05FF  00B8               	movwf	___ftadd@f2+2
  5094  0600  120A  118A  2153  120A  118A  	fcall	___ftadd
  5095  0605  1283               	bcf	3,5	;RP0=0, select bank0
  5096  0606  1303               	bcf	3,6	;RP1=0, select bank0
  5097  0607  0833               	movf	?___ftadd,w
  5098  0608  1683               	bsf	3,5	;RP0=1, select bank1
  5099  0609  1303               	bcf	3,6	;RP1=0, select bank1
  5100  060A  00C8               	movwf	main@Rspeed^(0+128)
  5101  060B  1283               	bcf	3,5	;RP0=0, select bank0
  5102  060C  1303               	bcf	3,6	;RP1=0, select bank0
  5103  060D  0834               	movf	?___ftadd+1,w
  5104  060E  1683               	bsf	3,5	;RP0=1, select bank1
  5105  060F  1303               	bcf	3,6	;RP1=0, select bank1
  5106  0610  00C9               	movwf	(main@Rspeed+1)^(0+128)
  5107  0611  1283               	bcf	3,5	;RP0=0, select bank0
  5108  0612  1303               	bcf	3,6	;RP1=0, select bank0
  5109  0613  0835               	movf	?___ftadd+2,w
  5110  0614  1683               	bsf	3,5	;RP0=1, select bank1
  5111  0615  1303               	bcf	3,6	;RP1=0, select bank1
  5112  0616  00CA               	movwf	(main@Rspeed+2)^(0+128)
  5113                           
  5114                           ;maincode.c: 333: if(Rspeed>1023){
  5115  0617  30C0               	movlw	192
  5116  0618  00F0               	movwf	___ftge@ff1
  5117  0619  307F               	movlw	127
  5118  061A  00F1               	movwf	___ftge@ff1+1
  5119  061B  3044               	movlw	68
  5120  061C  00F2               	movwf	___ftge@ff1+2
  5121  061D  0848               	movf	main@Rspeed^(0+128),w
  5122  061E  00F3               	movwf	___ftge@ff2
  5123  061F  0849               	movf	(main@Rspeed+1)^(0+128),w
  5124  0620  00F4               	movwf	___ftge@ff2+1
  5125  0621  084A               	movf	(main@Rspeed+2)^(0+128),w
  5126  0622  00F5               	movwf	___ftge@ff2+2
  5127  0623  120A  158A  21D9  120A  118A  	fcall	___ftge
  5128  0628  1803               	btfsc	3,0
  5129  0629  2E32               	goto	l2068
  5130                           
  5131                           ;maincode.c: 334: Rspeed=1023;
  5132  062A  30C0               	movlw	192
  5133  062B  1683               	bsf	3,5	;RP0=1, select bank1
  5134  062C  1303               	bcf	3,6	;RP1=0, select bank1
  5135  062D  00C8               	movwf	main@Rspeed^(0+128)
  5136  062E  307F               	movlw	127
  5137  062F  00C9               	movwf	(main@Rspeed+1)^(0+128)
  5138  0630  3044               	movlw	68
  5139  0631  00CA               	movwf	(main@Rspeed+2)^(0+128)
  5140  0632                     l2068:	
  5141                           
  5142                           ;maincode.c: 335: }
  5143                           ;maincode.c: 336: if(Lspeed>1023){
  5144  0632  30C0               	movlw	192
  5145  0633  00F0               	movwf	___ftge@ff1
  5146  0634  307F               	movlw	127
  5147  0635  00F1               	movwf	___ftge@ff1+1
  5148  0636  3044               	movlw	68
  5149  0637  00F2               	movwf	___ftge@ff1+2
  5150  0638  1683               	bsf	3,5	;RP0=1, select bank1
  5151  0639  1303               	bcf	3,6	;RP1=0, select bank1
  5152  063A  0845               	movf	main@Lspeed^(0+128),w
  5153  063B  00F3               	movwf	___ftge@ff2
  5154  063C  0846               	movf	(main@Lspeed+1)^(0+128),w
  5155  063D  00F4               	movwf	___ftge@ff2+1
  5156  063E  0847               	movf	(main@Lspeed+2)^(0+128),w
  5157  063F  00F5               	movwf	___ftge@ff2+2
  5158  0640  120A  158A  21D9  120A  118A  	fcall	___ftge
  5159  0645  1803               	btfsc	3,0
  5160  0646  2E4F               	goto	l2072
  5161                           
  5162                           ;maincode.c: 337: Lspeed=1023;
  5163  0647  30C0               	movlw	192
  5164  0648  1683               	bsf	3,5	;RP0=1, select bank1
  5165  0649  1303               	bcf	3,6	;RP1=0, select bank1
  5166  064A  00C5               	movwf	main@Lspeed^(0+128)
  5167  064B  307F               	movlw	127
  5168  064C  00C6               	movwf	(main@Lspeed+1)^(0+128)
  5169  064D  3044               	movlw	68
  5170  064E  00C7               	movwf	(main@Lspeed+2)^(0+128)
  5171  064F                     l2072:	
  5172                           
  5173                           ;maincode.c: 338: }
  5174                           ;maincode.c: 339: if(Rspeed<0){ RD0=0;
  5175  064F  1683               	bsf	3,5	;RP0=1, select bank1
  5176  0650  1303               	bcf	3,6	;RP1=0, select bank1
  5177  0651  0848               	movf	main@Rspeed^(0+128),w
  5178  0652  00F0               	movwf	___ftge@ff1
  5179  0653  0849               	movf	(main@Rspeed+1)^(0+128),w
  5180  0654  00F1               	movwf	___ftge@ff1+1
  5181  0655  084A               	movf	(main@Rspeed+2)^(0+128),w
  5182  0656  00F2               	movwf	___ftge@ff1+2
  5183  0657  3000               	movlw	0
  5184  0658  00F3               	movwf	___ftge@ff2
  5185  0659  3000               	movlw	0
  5186  065A  00F4               	movwf	___ftge@ff2+1
  5187  065B  3000               	movlw	0
  5188  065C  00F5               	movwf	___ftge@ff2+2
  5189  065D  120A  158A  21D9  120A  118A  	fcall	___ftge
  5190  0662  1803               	btfsc	3,0
  5191  0663  2EA4               	goto	l146
  5192  0664  1283               	bcf	3,5	;RP0=0, select bank0
  5193  0665  1303               	bcf	3,6	;RP1=0, select bank0
  5194  0666  1008               	bcf	8,0	;volatile
  5195                           
  5196                           ;maincode.c: 340: RD1=1;
  5197  0667  1488               	bsf	8,1	;volatile
  5198                           
  5199                           ;maincode.c: 341: Rspeed=-Rspeed/2.5;
  5200  0668  3000               	movlw	0
  5201  0669  00A0               	movwf	___ftdiv@f2
  5202  066A  3020               	movlw	32
  5203  066B  00A1               	movwf	___ftdiv@f2+1
  5204  066C  3040               	movlw	64
  5205  066D  00A2               	movwf	___ftdiv@f2+2
  5206  066E  1683               	bsf	3,5	;RP0=1, select bank1
  5207  066F  1303               	bcf	3,6	;RP1=0, select bank1
  5208  0670  0848               	movf	main@Rspeed^(0+128),w
  5209  0671  1283               	bcf	3,5	;RP0=0, select bank0
  5210  0672  1303               	bcf	3,6	;RP1=0, select bank0
  5211  0673  00B0               	movwf	___ftneg@f1
  5212  0674  1683               	bsf	3,5	;RP0=1, select bank1
  5213  0675  1303               	bcf	3,6	;RP1=0, select bank1
  5214  0676  0849               	movf	(main@Rspeed+1)^(0+128),w
  5215  0677  1283               	bcf	3,5	;RP0=0, select bank0
  5216  0678  1303               	bcf	3,6	;RP1=0, select bank0
  5217  0679  00B1               	movwf	___ftneg@f1+1
  5218  067A  1683               	bsf	3,5	;RP0=1, select bank1
  5219  067B  1303               	bcf	3,6	;RP1=0, select bank1
  5220  067C  084A               	movf	(main@Rspeed+2)^(0+128),w
  5221  067D  1283               	bcf	3,5	;RP0=0, select bank0
  5222  067E  1303               	bcf	3,6	;RP1=0, select bank0
  5223  067F  00B2               	movwf	___ftneg@f1+2
  5224  0680  120A  118A  2009  120A  118A  	fcall	___ftneg
  5225  0685  1283               	bcf	3,5	;RP0=0, select bank0
  5226  0686  1303               	bcf	3,6	;RP1=0, select bank0
  5227  0687  0830               	movf	?___ftneg,w
  5228  0688  00A3               	movwf	___ftdiv@f1
  5229  0689  0831               	movf	?___ftneg+1,w
  5230  068A  00A4               	movwf	___ftdiv@f1+1
  5231  068B  0832               	movf	?___ftneg+2,w
  5232  068C  00A5               	movwf	___ftdiv@f1+2
  5233  068D  120A  158A  24C2  120A  118A  	fcall	___ftdiv
  5234  0692  1283               	bcf	3,5	;RP0=0, select bank0
  5235  0693  1303               	bcf	3,6	;RP1=0, select bank0
  5236  0694  0820               	movf	?___ftdiv,w
  5237  0695  1683               	bsf	3,5	;RP0=1, select bank1
  5238  0696  1303               	bcf	3,6	;RP1=0, select bank1
  5239  0697  00C8               	movwf	main@Rspeed^(0+128)
  5240  0698  1283               	bcf	3,5	;RP0=0, select bank0
  5241  0699  1303               	bcf	3,6	;RP1=0, select bank0
  5242  069A  0821               	movf	?___ftdiv+1,w
  5243  069B  1683               	bsf	3,5	;RP0=1, select bank1
  5244  069C  1303               	bcf	3,6	;RP1=0, select bank1
  5245  069D  00C9               	movwf	(main@Rspeed+1)^(0+128)
  5246  069E  1283               	bcf	3,5	;RP0=0, select bank0
  5247  069F  1303               	bcf	3,6	;RP1=0, select bank0
  5248  06A0  0822               	movf	?___ftdiv+2,w
  5249  06A1  1683               	bsf	3,5	;RP0=1, select bank1
  5250  06A2  1303               	bcf	3,6	;RP1=0, select bank1
  5251  06A3  00CA               	movwf	(main@Rspeed+2)^(0+128)
  5252  06A4                     l146:	
  5253                           
  5254                           ;maincode.c: 342: }
  5255                           ;maincode.c: 343: if(Lspeed<0){
  5256  06A4  1683               	bsf	3,5	;RP0=1, select bank1
  5257  06A5  1303               	bcf	3,6	;RP1=0, select bank1
  5258  06A6  0845               	movf	main@Lspeed^(0+128),w
  5259  06A7  00F0               	movwf	___ftge@ff1
  5260  06A8  0846               	movf	(main@Lspeed+1)^(0+128),w
  5261  06A9  00F1               	movwf	___ftge@ff1+1
  5262  06AA  0847               	movf	(main@Lspeed+2)^(0+128),w
  5263  06AB  00F2               	movwf	___ftge@ff1+2
  5264  06AC  3000               	movlw	0
  5265  06AD  00F3               	movwf	___ftge@ff2
  5266  06AE  3000               	movlw	0
  5267  06AF  00F4               	movwf	___ftge@ff2+1
  5268  06B0  3000               	movlw	0
  5269  06B1  00F5               	movwf	___ftge@ff2+2
  5270  06B2  120A  158A  21D9  120A  118A  	fcall	___ftge
  5271  06B7  1803               	btfsc	3,0
  5272  06B8  2EF9               	goto	l147
  5273                           
  5274                           ;maincode.c: 344: RD2=0;
  5275  06B9  1283               	bcf	3,5	;RP0=0, select bank0
  5276  06BA  1303               	bcf	3,6	;RP1=0, select bank0
  5277  06BB  1108               	bcf	8,2	;volatile
  5278                           
  5279                           ;maincode.c: 345: RD3=1;
  5280  06BC  1588               	bsf	8,3	;volatile
  5281                           
  5282                           ;maincode.c: 346: Lspeed=-Lspeed/2.5;
  5283  06BD  3000               	movlw	0
  5284  06BE  00A0               	movwf	___ftdiv@f2
  5285  06BF  3020               	movlw	32
  5286  06C0  00A1               	movwf	___ftdiv@f2+1
  5287  06C1  3040               	movlw	64
  5288  06C2  00A2               	movwf	___ftdiv@f2+2
  5289  06C3  1683               	bsf	3,5	;RP0=1, select bank1
  5290  06C4  1303               	bcf	3,6	;RP1=0, select bank1
  5291  06C5  0845               	movf	main@Lspeed^(0+128),w
  5292  06C6  1283               	bcf	3,5	;RP0=0, select bank0
  5293  06C7  1303               	bcf	3,6	;RP1=0, select bank0
  5294  06C8  00B0               	movwf	___ftneg@f1
  5295  06C9  1683               	bsf	3,5	;RP0=1, select bank1
  5296  06CA  1303               	bcf	3,6	;RP1=0, select bank1
  5297  06CB  0846               	movf	(main@Lspeed+1)^(0+128),w
  5298  06CC  1283               	bcf	3,5	;RP0=0, select bank0
  5299  06CD  1303               	bcf	3,6	;RP1=0, select bank0
  5300  06CE  00B1               	movwf	___ftneg@f1+1
  5301  06CF  1683               	bsf	3,5	;RP0=1, select bank1
  5302  06D0  1303               	bcf	3,6	;RP1=0, select bank1
  5303  06D1  0847               	movf	(main@Lspeed+2)^(0+128),w
  5304  06D2  1283               	bcf	3,5	;RP0=0, select bank0
  5305  06D3  1303               	bcf	3,6	;RP1=0, select bank0
  5306  06D4  00B2               	movwf	___ftneg@f1+2
  5307  06D5  120A  118A  2009  120A  118A  	fcall	___ftneg
  5308  06DA  1283               	bcf	3,5	;RP0=0, select bank0
  5309  06DB  1303               	bcf	3,6	;RP1=0, select bank0
  5310  06DC  0830               	movf	?___ftneg,w
  5311  06DD  00A3               	movwf	___ftdiv@f1
  5312  06DE  0831               	movf	?___ftneg+1,w
  5313  06DF  00A4               	movwf	___ftdiv@f1+1
  5314  06E0  0832               	movf	?___ftneg+2,w
  5315  06E1  00A5               	movwf	___ftdiv@f1+2
  5316  06E2  120A  158A  24C2  120A  118A  	fcall	___ftdiv
  5317  06E7  1283               	bcf	3,5	;RP0=0, select bank0
  5318  06E8  1303               	bcf	3,6	;RP1=0, select bank0
  5319  06E9  0820               	movf	?___ftdiv,w
  5320  06EA  1683               	bsf	3,5	;RP0=1, select bank1
  5321  06EB  1303               	bcf	3,6	;RP1=0, select bank1
  5322  06EC  00C5               	movwf	main@Lspeed^(0+128)
  5323  06ED  1283               	bcf	3,5	;RP0=0, select bank0
  5324  06EE  1303               	bcf	3,6	;RP1=0, select bank0
  5325  06EF  0821               	movf	?___ftdiv+1,w
  5326  06F0  1683               	bsf	3,5	;RP0=1, select bank1
  5327  06F1  1303               	bcf	3,6	;RP1=0, select bank1
  5328  06F2  00C6               	movwf	(main@Lspeed+1)^(0+128)
  5329  06F3  1283               	bcf	3,5	;RP0=0, select bank0
  5330  06F4  1303               	bcf	3,6	;RP1=0, select bank0
  5331  06F5  0822               	movf	?___ftdiv+2,w
  5332  06F6  1683               	bsf	3,5	;RP0=1, select bank1
  5333  06F7  1303               	bcf	3,6	;RP1=0, select bank1
  5334  06F8  00C7               	movwf	(main@Lspeed+2)^(0+128)
  5335  06F9                     l147:	
  5336                           
  5337                           ;maincode.c: 347: }
  5338                           ;maincode.c: 348: PWM1_Duty(Lspeed);
  5339  06F9  1683               	bsf	3,5	;RP0=1, select bank1
  5340  06FA  1303               	bcf	3,6	;RP1=0, select bank1
  5341  06FB  0845               	movf	main@Lspeed^(0+128),w
  5342  06FC  1283               	bcf	3,5	;RP0=0, select bank0
  5343  06FD  1303               	bcf	3,6	;RP1=0, select bank0
  5344  06FE  00D0               	movwf	___fttol@f1
  5345  06FF  1683               	bsf	3,5	;RP0=1, select bank1
  5346  0700  1303               	bcf	3,6	;RP1=0, select bank1
  5347  0701  0846               	movf	(main@Lspeed+1)^(0+128),w
  5348  0702  1283               	bcf	3,5	;RP0=0, select bank0
  5349  0703  1303               	bcf	3,6	;RP1=0, select bank0
  5350  0704  00D1               	movwf	___fttol@f1+1
  5351  0705  1683               	bsf	3,5	;RP0=1, select bank1
  5352  0706  1303               	bcf	3,6	;RP1=0, select bank1
  5353  0707  0847               	movf	(main@Lspeed+2)^(0+128),w
  5354  0708  1283               	bcf	3,5	;RP0=0, select bank0
  5355  0709  1303               	bcf	3,6	;RP1=0, select bank0
  5356  070A  00D2               	movwf	___fttol@f1+2
  5357  070B  120A  158A  230F  120A  118A  	fcall	___fttol
  5358  0710  1283               	bcf	3,5	;RP0=0, select bank0
  5359  0711  1303               	bcf	3,6	;RP1=0, select bank0
  5360  0712  0851               	movf	?___fttol+1,w
  5361  0713  1683               	bsf	3,5	;RP0=1, select bank1
  5362  0714  1303               	bcf	3,6	;RP1=0, select bank1
  5363  0715  00B8               	movwf	(_main$497+1)^(0+128)
  5364  0716  1283               	bcf	3,5	;RP0=0, select bank0
  5365  0717  1303               	bcf	3,6	;RP1=0, select bank0
  5366  0718  0850               	movf	?___fttol,w
  5367  0719  1683               	bsf	3,5	;RP0=1, select bank1
  5368  071A  1303               	bcf	3,6	;RP1=0, select bank1
  5369  071B  00B7               	movwf	_main$497^(0+128)
  5370                           
  5371                           ;maincode.c: 347: }
  5372                           ;maincode.c: 348: PWM1_Duty(Lspeed);
  5373  071C  0838               	movf	(_main$497+1)^(0+128),w
  5374  071D  1283               	bcf	3,5	;RP0=0, select bank0
  5375  071E  1303               	bcf	3,6	;RP1=0, select bank0
  5376  071F  00DF               	movwf	PWM1_Duty@duty+1
  5377  0720  1683               	bsf	3,5	;RP0=1, select bank1
  5378  0721  1303               	bcf	3,6	;RP1=0, select bank1
  5379  0722  0837               	movf	_main$497^(0+128),w
  5380  0723  1283               	bcf	3,5	;RP0=0, select bank0
  5381  0724  1303               	bcf	3,6	;RP1=0, select bank0
  5382  0725  00DE               	movwf	PWM1_Duty@duty
  5383  0726  120A  158A  22A2  120A  118A  	fcall	_PWM1_Duty
  5384                           
  5385                           ;maincode.c: 349: PWM2_Duty(Rspeed);
  5386  072B  1683               	bsf	3,5	;RP0=1, select bank1
  5387  072C  1303               	bcf	3,6	;RP1=0, select bank1
  5388  072D  0848               	movf	main@Rspeed^(0+128),w
  5389  072E  1283               	bcf	3,5	;RP0=0, select bank0
  5390  072F  1303               	bcf	3,6	;RP1=0, select bank0
  5391  0730  00D0               	movwf	___fttol@f1
  5392  0731  1683               	bsf	3,5	;RP0=1, select bank1
  5393  0732  1303               	bcf	3,6	;RP1=0, select bank1
  5394  0733  0849               	movf	(main@Rspeed+1)^(0+128),w
  5395  0734  1283               	bcf	3,5	;RP0=0, select bank0
  5396  0735  1303               	bcf	3,6	;RP1=0, select bank0
  5397  0736  00D1               	movwf	___fttol@f1+1
  5398  0737  1683               	bsf	3,5	;RP0=1, select bank1
  5399  0738  1303               	bcf	3,6	;RP1=0, select bank1
  5400  0739  084A               	movf	(main@Rspeed+2)^(0+128),w
  5401  073A  1283               	bcf	3,5	;RP0=0, select bank0
  5402  073B  1303               	bcf	3,6	;RP1=0, select bank0
  5403  073C  00D2               	movwf	___fttol@f1+2
  5404  073D  120A  158A  230F  120A  118A  	fcall	___fttol
  5405  0742  1283               	bcf	3,5	;RP0=0, select bank0
  5406  0743  1303               	bcf	3,6	;RP1=0, select bank0
  5407  0744  0851               	movf	?___fttol+1,w
  5408  0745  1683               	bsf	3,5	;RP0=1, select bank1
  5409  0746  1303               	bcf	3,6	;RP1=0, select bank1
  5410  0747  00BA               	movwf	(_main$498+1)^(0+128)
  5411  0748  1283               	bcf	3,5	;RP0=0, select bank0
  5412  0749  1303               	bcf	3,6	;RP1=0, select bank0
  5413  074A  0850               	movf	?___fttol,w
  5414  074B  1683               	bsf	3,5	;RP0=1, select bank1
  5415  074C  1303               	bcf	3,6	;RP1=0, select bank1
  5416  074D  00B9               	movwf	_main$498^(0+128)
  5417                           
  5418                           ;maincode.c: 349: PWM2_Duty(Rspeed);
  5419  074E  083A               	movf	(_main$498+1)^(0+128),w
  5420  074F  1283               	bcf	3,5	;RP0=0, select bank0
  5421  0750  1303               	bcf	3,6	;RP1=0, select bank0
  5422  0751  00DF               	movwf	PWM2_Duty@duty+1
  5423  0752  1683               	bsf	3,5	;RP0=1, select bank1
  5424  0753  1303               	bcf	3,6	;RP1=0, select bank1
  5425  0754  0839               	movf	_main$498^(0+128),w
  5426  0755  1283               	bcf	3,5	;RP0=0, select bank0
  5427  0756  1303               	bcf	3,6	;RP1=0, select bank0
  5428  0757  00DE               	movwf	PWM2_Duty@duty
  5429  0758  120A  118A  2013  120A  118A  	fcall	_PWM2_Duty
  5430                           
  5431                           ;maincode.c: 350: _delay((unsigned long)((20)*(16000000/4000.0)));
  5432  075D  3068               	movlw	104
  5433  075E  1283               	bcf	3,5	;RP0=0, select bank0
  5434  075F  1303               	bcf	3,6	;RP1=0, select bank0
  5435  0760  00E3               	movwf	??_main+1
  5436  0761  30E3               	movlw	227
  5437  0762  00E2               	movwf	??_main
  5438  0763                     u3117:	
  5439  0763  0BE2               	decfsz	??_main,f
  5440  0764  2F63               	goto	u3117
  5441  0765  0BE3               	decfsz	??_main+1,f
  5442  0766  2F63               	goto	u3117
  5443  0767  2F68               	nop2
  5444                           
  5445                           ;maincode.c: 351: RD0=1;
  5446  0768  1283               	bcf	3,5	;RP0=0, select bank0
  5447  0769  1303               	bcf	3,6	;RP1=0, select bank0
  5448  076A  1408               	bsf	8,0	;volatile
  5449                           
  5450                           ;maincode.c: 352: RD1=0;
  5451  076B  1088               	bcf	8,1	;volatile
  5452                           
  5453                           ;maincode.c: 353: RD2=1;
  5454  076C  1508               	bsf	8,2	;volatile
  5455                           
  5456                           ;maincode.c: 354: RD3=0;
  5457  076D  1188               	bcf	8,3	;volatile
  5458  076E  3001               	movlw	1
  5459  076F  1683               	bsf	3,5	;RP0=1, select bank1
  5460  0770  1303               	bcf	3,6	;RP1=0, select bank1
  5461  0771  07A4               	addwf	main@i_93^(0+128),f
  5462  0772  1803               	skipnc
  5463  0773  0AA5               	incf	(main@i_93+1)^(0+128),f
  5464  0774  3000               	movlw	0
  5465  0775  07A5               	addwf	(main@i_93+1)^(0+128),f
  5466  0776  0825               	movf	(main@i_93+1)^(0+128),w
  5467  0777  3A80               	xorlw	128
  5468  0778  00FF               	movwf	127
  5469  0779  3080               	movlw	128
  5470  077A  027F               	subwf	127,w
  5471  077B  1D03               	skipz
  5472  077C  2F7F               	goto	u3085
  5473  077D  3014               	movlw	20
  5474  077E  0224               	subwf	main@i_93^(0+128),w
  5475  077F                     u3085:	
  5476  077F  1C03               	skipc
  5477  0780  2BFC               	goto	l2020
  5478  0781                     l2096:	
  5479                           
  5480                           ;maincode.c: 355: }
  5481                           ;maincode.c: 356: }
  5482                           ;maincode.c: 376: PWM1_Duty(Lspeed);
  5483  0781  1683               	bsf	3,5	;RP0=1, select bank1
  5484  0782  1303               	bcf	3,6	;RP1=0, select bank1
  5485  0783  0845               	movf	main@Lspeed^(0+128),w
  5486  0784  1283               	bcf	3,5	;RP0=0, select bank0
  5487  0785  1303               	bcf	3,6	;RP1=0, select bank0
  5488  0786  00D0               	movwf	___fttol@f1
  5489  0787  1683               	bsf	3,5	;RP0=1, select bank1
  5490  0788  1303               	bcf	3,6	;RP1=0, select bank1
  5491  0789  0846               	movf	(main@Lspeed+1)^(0+128),w
  5492  078A  1283               	bcf	3,5	;RP0=0, select bank0
  5493  078B  1303               	bcf	3,6	;RP1=0, select bank0
  5494  078C  00D1               	movwf	___fttol@f1+1
  5495  078D  1683               	bsf	3,5	;RP0=1, select bank1
  5496  078E  1303               	bcf	3,6	;RP1=0, select bank1
  5497  078F  0847               	movf	(main@Lspeed+2)^(0+128),w
  5498  0790  1283               	bcf	3,5	;RP0=0, select bank0
  5499  0791  1303               	bcf	3,6	;RP1=0, select bank0
  5500  0792  00D2               	movwf	___fttol@f1+2
  5501  0793  120A  158A  230F  120A  118A  	fcall	___fttol
  5502  0798  1283               	bcf	3,5	;RP0=0, select bank0
  5503  0799  1303               	bcf	3,6	;RP1=0, select bank0
  5504  079A  0851               	movf	?___fttol+1,w
  5505  079B  1683               	bsf	3,5	;RP0=1, select bank1
  5506  079C  1303               	bcf	3,6	;RP1=0, select bank1
  5507  079D  00B8               	movwf	(_main$497+1)^(0+128)
  5508  079E  1283               	bcf	3,5	;RP0=0, select bank0
  5509  079F  1303               	bcf	3,6	;RP1=0, select bank0
  5510  07A0  0850               	movf	?___fttol,w
  5511  07A1  1683               	bsf	3,5	;RP0=1, select bank1
  5512  07A2  1303               	bcf	3,6	;RP1=0, select bank1
  5513  07A3  00B7               	movwf	_main$497^(0+128)
  5514                           
  5515                           ;maincode.c: 355: }
  5516                           ;maincode.c: 356: }
  5517                           ;maincode.c: 376: PWM1_Duty(Lspeed);
  5518  07A4  0838               	movf	(_main$497+1)^(0+128),w
  5519  07A5  1283               	bcf	3,5	;RP0=0, select bank0
  5520  07A6  1303               	bcf	3,6	;RP1=0, select bank0
  5521  07A7  00DF               	movwf	PWM1_Duty@duty+1
  5522  07A8  1683               	bsf	3,5	;RP0=1, select bank1
  5523  07A9  1303               	bcf	3,6	;RP1=0, select bank1
  5524  07AA  0837               	movf	_main$497^(0+128),w
  5525  07AB  1283               	bcf	3,5	;RP0=0, select bank0
  5526  07AC  1303               	bcf	3,6	;RP1=0, select bank0
  5527  07AD  00DE               	movwf	PWM1_Duty@duty
  5528  07AE  120A  158A  22A2  120A  118A  	fcall	_PWM1_Duty
  5529                           
  5530                           ;maincode.c: 377: PWM2_Duty(Rspeed);
  5531  07B3  1683               	bsf	3,5	;RP0=1, select bank1
  5532  07B4  1303               	bcf	3,6	;RP1=0, select bank1
  5533  07B5  0848               	movf	main@Rspeed^(0+128),w
  5534  07B6  1283               	bcf	3,5	;RP0=0, select bank0
  5535  07B7  1303               	bcf	3,6	;RP1=0, select bank0
  5536  07B8  00D0               	movwf	___fttol@f1
  5537  07B9  1683               	bsf	3,5	;RP0=1, select bank1
  5538  07BA  1303               	bcf	3,6	;RP1=0, select bank1
  5539  07BB  0849               	movf	(main@Rspeed+1)^(0+128),w
  5540  07BC  1283               	bcf	3,5	;RP0=0, select bank0
  5541  07BD  1303               	bcf	3,6	;RP1=0, select bank0
  5542  07BE  00D1               	movwf	___fttol@f1+1
  5543  07BF  1683               	bsf	3,5	;RP0=1, select bank1
  5544  07C0  1303               	bcf	3,6	;RP1=0, select bank1
  5545  07C1  084A               	movf	(main@Rspeed+2)^(0+128),w
  5546  07C2  1283               	bcf	3,5	;RP0=0, select bank0
  5547  07C3  1303               	bcf	3,6	;RP1=0, select bank0
  5548  07C4  00D2               	movwf	___fttol@f1+2
  5549  07C5  120A  158A  230F  120A  118A  	fcall	___fttol
  5550  07CA  1283               	bcf	3,5	;RP0=0, select bank0
  5551  07CB  1303               	bcf	3,6	;RP1=0, select bank0
  5552  07CC  0851               	movf	?___fttol+1,w
  5553  07CD  1683               	bsf	3,5	;RP0=1, select bank1
  5554  07CE  1303               	bcf	3,6	;RP1=0, select bank1
  5555  07CF  00BA               	movwf	(_main$498+1)^(0+128)
  5556  07D0  1283               	bcf	3,5	;RP0=0, select bank0
  5557  07D1  1303               	bcf	3,6	;RP1=0, select bank0
  5558  07D2  0850               	movf	?___fttol,w
  5559  07D3  1683               	bsf	3,5	;RP0=1, select bank1
  5560  07D4  1303               	bcf	3,6	;RP1=0, select bank1
  5561  07D5  00B9               	movwf	_main$498^(0+128)
  5562                           
  5563                           ;maincode.c: 377: PWM2_Duty(Rspeed);
  5564  07D6  083A               	movf	(_main$498+1)^(0+128),w
  5565  07D7  1283               	bcf	3,5	;RP0=0, select bank0
  5566  07D8  1303               	bcf	3,6	;RP1=0, select bank0
  5567  07D9  00DF               	movwf	PWM2_Duty@duty+1
  5568  07DA  1683               	bsf	3,5	;RP0=1, select bank1
  5569  07DB  1303               	bcf	3,6	;RP1=0, select bank1
  5570  07DC  0839               	movf	_main$498^(0+128),w
  5571  07DD  1283               	bcf	3,5	;RP0=0, select bank0
  5572  07DE  1303               	bcf	3,6	;RP1=0, select bank0
  5573  07DF  00DE               	movwf	PWM2_Duty@duty
  5574  07E0  120A  118A  2013  120A  118A  	fcall	_PWM2_Duty
  5575                           
  5576                           ;maincode.c: 378: _delay((unsigned long)((20)*(16000000/4000.0)));
  5577  07E5  3068               	movlw	104
  5578  07E6  1283               	bcf	3,5	;RP0=0, select bank0
  5579  07E7  1303               	bcf	3,6	;RP1=0, select bank0
  5580  07E8  00E3               	movwf	??_main+1
  5581  07E9  30E3               	movlw	227
  5582  07EA  00E2               	movwf	??_main
  5583  07EB                     u3127:	
  5584  07EB  0BE2               	decfsz	??_main,f
  5585  07EC  2FEB               	goto	u3127
  5586  07ED  0BE3               	decfsz	??_main+1,f
  5587  07EE  2FEB               	goto	u3127
  5588  07EF  2FF0               	nop2
  5589                           
  5590                           ;maincode.c: 379: RD0=1;
  5591  07F0  1283               	bcf	3,5	;RP0=0, select bank0
  5592  07F1  1303               	bcf	3,6	;RP1=0, select bank0
  5593  07F2  1408               	bsf	8,0	;volatile
  5594                           
  5595                           ;maincode.c: 380: RD1=0;
  5596  07F3  1088               	bcf	8,1	;volatile
  5597                           
  5598                           ;maincode.c: 381: RD2=1;
  5599  07F4  1508               	bsf	8,2	;volatile
  5600                           
  5601                           ;maincode.c: 382: RD3=0;
  5602  07F5  1188               	bcf	8,3	;volatile
  5603  07F6  120A  118A  2800   	ljmp	start
  5604  07F9                     L9:	
  5605  07F9                     __end_of_main:	
  5606  07F9  120A  158A  2DFF   	ljmp	l1932


Data Sizes:
    Strings     0
    Constant    0
    Data        0
    BSS         0
    Persistent  4
    Stack       0

Auto Spaces:
    Space          Size  Autos    Used
    COMMON           14     14      14
    BANK0            80     68      72
    BANK1            80     45      45
    BANK3            96      0       0
    BANK2            96      0       0

Pointer List with Targets:

    None.

Critical Paths under _main in COMMON

    _main->___awtoft
    _PWM2_Init->___aldiv
    _PWM2_Duty->___awtoft
    _PWM1_Init->___aldiv
    _PWM1_Duty->___awtoft
    ___lwtoft->___ftpack
    ___fttol->___awtoft
    ___ftmul->___awtoft
    ___ftdiv->___lwtoft
    ___awtoft->_PWM_Max_Duty
    _PWM_Max_Duty->___aldiv

Critical Paths under _main in BANK0

    _main->_PWM1_Duty
    _main->_PWM2_Duty
    ___ftneg->___ftdiv
    ___ftadd->___ftneg
    _PWM2_Init->___aldiv
    _PWM2_Duty->___fttol
    _PWM1_Init->___aldiv
    _PWM1_Duty->___fttol
    ___fttol->___ftmul
    ___ftmul->___ftadd
    ___awtoft->_PWM_Max_Duty
    _PWM_Max_Duty->___aldiv

Critical Paths under _main in BANK1

    None.

Critical Paths under _main in BANK3

    None.

Critical Paths under _main in BANK2

    None.

Call Graph Tables:

 ---------------------------------------------------------------------------------
 (Depth) Function   	        Calls       Base Space   Used Autos Params    Refs
 ---------------------------------------------------------------------------------
 (0) _main                                                47    47      0   43600
                                             66 BANK0      2     2      0
                                              0 BANK1     45    45      0
                          _PWM1_Duty
                          _PWM1_Init
                          _PWM2_Duty
                          _PWM2_Init
                            ___awdiv
                           ___awtoft
                            ___ftadd
                            ___ftdiv
                             ___ftge
                            ___ftmul
                            ___ftneg
                            ___fttol
 ---------------------------------------------------------------------------------
 (1) ___ftneg                                              3     0      3     893
                                             16 BANK0      3     0      3
                            ___ftdiv (ARG)
 ---------------------------------------------------------------------------------
 (1) ___ftge                                              12     6      6    1514
                                              0 COMMON    12     6      6
 ---------------------------------------------------------------------------------
 (1) ___ftadd                                             13     7      6    4150
                                             19 BANK0     13     7      6
                            ___ftdiv (ARG)
                            ___ftneg (ARG)
                           ___ftpack
                           ___ftpack (ARG)
 ---------------------------------------------------------------------------------
 (1) ___awdiv                                              9     5      4     618
                                              0 COMMON     9     5      4
 ---------------------------------------------------------------------------------
 (1) _PWM2_Init                                            8     4      4     715
                                              9 COMMON     4     4      0
                                              6 BANK0      4     0      4
                            ___aldiv
 ---------------------------------------------------------------------------------
 (1) _PWM2_Duty                                            4     2      2   11683
                                             62 BANK0      4     2      2
                       _PWM_Max_Duty
                           ___awtoft
                            ___ftdiv
                            ___ftmul
                            ___fttol
                           ___lwtoft
 ---------------------------------------------------------------------------------
 (1) _PWM1_Init                                            8     4      4     715
                                              9 COMMON     4     4      0
                                              6 BANK0      4     0      4
                            ___aldiv
 ---------------------------------------------------------------------------------
 (1) _PWM1_Duty                                            4     2      2   11683
                                             62 BANK0      4     2      2
                       _PWM_Max_Duty
                           ___awtoft
                            ___ftdiv
                            ___ftmul
                            ___fttol
                           ___lwtoft
 ---------------------------------------------------------------------------------
 (2) ___lwtoft                                             4     1      3    1874
                                              8 COMMON     4     1      3
                           ___ftpack
 ---------------------------------------------------------------------------------
 (1) ___fttol                                             14    10      4     782
                                             48 BANK0     14    10      4
                       _PWM_Max_Duty (ARG)
                           ___awtoft (ARG)
                            ___ftdiv (ARG)
                            ___ftmul (ARG)
                           ___lwtoft (ARG)
 ---------------------------------------------------------------------------------
 (1) ___ftmul                                             16    10      6    2920
                                             32 BANK0     16    10      6
                       _PWM_Max_Duty (ARG)
                           ___awtoft (ARG)
                            ___ftadd (ARG)
                            ___ftdiv (ARG)
                            ___ftneg (ARG)
                           ___ftpack
                           ___lwtoft (ARG)
 ---------------------------------------------------------------------------------
 (1) ___ftdiv                                             16    10      6    3086
                                              0 BANK0     16    10      6
                           ___ftpack
                           ___lwtoft (ARG)
 ---------------------------------------------------------------------------------
 (1) ___awtoft                                             6     3      3    2102
                                             13 COMMON     1     1      0
                                              8 BANK0      5     2      3
                       _PWM_Max_Duty (ARG)
                            ___awdiv (ARG)
                           ___ftpack
 ---------------------------------------------------------------------------------
 (2) ___ftpack                                             8     3      5    1746
                                              0 COMMON     8     3      5
 ---------------------------------------------------------------------------------
 (2) _PWM_Max_Duty                                         6     4      2     618
                                              9 COMMON     4     4      0
                                              6 BANK0      2     0      2
                            ___aldiv
 ---------------------------------------------------------------------------------
 (2) ___aldiv                                             15     7      8     618
                                              0 COMMON     9     1      8
                                              0 BANK0      6     6      0
 ---------------------------------------------------------------------------------
 Estimated maximum stack depth 2
 ---------------------------------------------------------------------------------

 Call Graph Graphs:

 _main (ROOT)
   _PWM1_Duty
     _PWM_Max_Duty
       ___aldiv
     ___awtoft
       _PWM_Max_Duty (ARG)
         ___aldiv
       ___awdiv (ARG)
       ___ftpack (ARG)
     ___ftdiv
       ___ftpack
       ___lwtoft (ARG)
         ___ftpack
     ___ftmul
       _PWM_Max_Duty (ARG)
         ___aldiv
       ___awtoft (ARG)
         _PWM_Max_Duty (ARG)
           ___aldiv
         ___awdiv (ARG)
         ___ftpack (ARG)
       ___ftadd (ARG)
         ___ftdiv (ARG)
           ___ftpack
           ___lwtoft (ARG)
             ___ftpack
         ___ftneg (ARG)
           ___ftdiv (ARG)
             ___ftpack
             ___lwtoft (ARG)
               ___ftpack
         ___ftpack (ARG)
         ___ftpack (ARG)
       ___ftdiv (ARG)
         ___ftpack
         ___lwtoft (ARG)
           ___ftpack
       ___ftneg (ARG)
         ___ftdiv (ARG)
           ___ftpack
           ___lwtoft (ARG)
             ___ftpack
       ___ftpack (ARG)
       ___lwtoft (ARG)
         ___ftpack
     ___fttol
       _PWM_Max_Duty (ARG)
         ___aldiv
       ___awtoft (ARG)
         _PWM_Max_Duty (ARG)
           ___aldiv
         ___awdiv (ARG)
         ___ftpack (ARG)
       ___ftdiv (ARG)
         ___ftpack
         ___lwtoft (ARG)
           ___ftpack
       ___ftmul (ARG)
         _PWM_Max_Duty (ARG)
           ___aldiv
         ___awtoft (ARG)
           _PWM_Max_Duty (ARG)
             ___aldiv
           ___awdiv (ARG)
           ___ftpack (ARG)
         ___ftadd (ARG)
           ___ftdiv (ARG)
             ___ftpack
             ___lwtoft (ARG)
               ___ftpack
           ___ftneg (ARG)
             ___ftdiv (ARG)
               ___ftpack
               ___lwtoft (ARG)
                 ___ftpack
           ___ftpack (ARG)
           ___ftpack (ARG)
         ___ftdiv (ARG)
           ___ftpack
           ___lwtoft (ARG)
             ___ftpack
         ___ftneg (ARG)
           ___ftdiv (ARG)
             ___ftpack
             ___lwtoft (ARG)
               ___ftpack
         ___ftpack (ARG)
         ___lwtoft (ARG)
           ___ftpack
       ___lwtoft (ARG)
         ___ftpack
     ___lwtoft
       ___ftpack
   _PWM1_Init
     ___aldiv
   _PWM2_Duty
     _PWM_Max_Duty
       ___aldiv
     ___awtoft
       _PWM_Max_Duty (ARG)
         ___aldiv
       ___awdiv (ARG)
       ___ftpack (ARG)
     ___ftdiv
       ___ftpack
       ___lwtoft (ARG)
         ___ftpack
     ___ftmul
       _PWM_Max_Duty (ARG)
         ___aldiv
       ___awtoft (ARG)
         _PWM_Max_Duty (ARG)
           ___aldiv
         ___awdiv (ARG)
         ___ftpack (ARG)
       ___ftadd (ARG)
         ___ftdiv (ARG)
           ___ftpack
           ___lwtoft (ARG)
             ___ftpack
         ___ftneg (ARG)
           ___ftdiv (ARG)
             ___ftpack
             ___lwtoft (ARG)
               ___ftpack
         ___ftpack (ARG)
         ___ftpack (ARG)
       ___ftdiv (ARG)
         ___ftpack
         ___lwtoft (ARG)
           ___ftpack
       ___ftneg (ARG)
         ___ftdiv (ARG)
           ___ftpack
           ___lwtoft (ARG)
             ___ftpack
       ___ftpack (ARG)
       ___lwtoft (ARG)
         ___ftpack
     ___fttol
       _PWM_Max_Duty (ARG)
         ___aldiv
       ___awtoft (ARG)
         _PWM_Max_Duty (ARG)
           ___aldiv
         ___awdiv (ARG)
         ___ftpack (ARG)
       ___ftdiv (ARG)
         ___ftpack
         ___lwtoft (ARG)
           ___ftpack
       ___ftmul (ARG)
         _PWM_Max_Duty (ARG)
           ___aldiv
         ___awtoft (ARG)
           _PWM_Max_Duty (ARG)
             ___aldiv
           ___awdiv (ARG)
           ___ftpack (ARG)
         ___ftadd (ARG)
           ___ftdiv (ARG)
             ___ftpack
             ___lwtoft (ARG)
               ___ftpack
           ___ftneg (ARG)
             ___ftdiv (ARG)
               ___ftpack
               ___lwtoft (ARG)
                 ___ftpack
           ___ftpack (ARG)
           ___ftpack (ARG)
         ___ftdiv (ARG)
           ___ftpack
           ___lwtoft (ARG)
             ___ftpack
         ___ftneg (ARG)
           ___ftdiv (ARG)
             ___ftpack
             ___lwtoft (ARG)
               ___ftpack
         ___ftpack (ARG)
         ___lwtoft (ARG)
           ___ftpack
       ___lwtoft (ARG)
         ___ftpack
     ___lwtoft
       ___ftpack
   _PWM2_Init
     ___aldiv
   ___awdiv
   ___awtoft
     _PWM_Max_Duty (ARG)
       ___aldiv
     ___awdiv (ARG)
     ___ftpack (ARG)
   ___ftadd
     ___ftdiv (ARG)
       ___ftpack
       ___lwtoft (ARG)
         ___ftpack
     ___ftneg (ARG)
       ___ftdiv (ARG)
         ___ftpack
         ___lwtoft (ARG)
           ___ftpack
     ___ftpack (ARG)
     ___ftpack (ARG)
   ___ftdiv
     ___ftpack
     ___lwtoft (ARG)
       ___ftpack
   ___ftge
   ___ftmul
     _PWM_Max_Duty (ARG)
       ___aldiv
     ___awtoft (ARG)
       _PWM_Max_Duty (ARG)
         ___aldiv
       ___awdiv (ARG)
       ___ftpack (ARG)
     ___ftadd (ARG)
       ___ftdiv (ARG)
         ___ftpack
         ___lwtoft (ARG)
           ___ftpack
       ___ftneg (ARG)
         ___ftdiv (ARG)
           ___ftpack
           ___lwtoft (ARG)
             ___ftpack
       ___ftpack (ARG)
       ___ftpack (ARG)
     ___ftdiv (ARG)
       ___ftpack
       ___lwtoft (ARG)
         ___ftpack
     ___ftneg (ARG)
       ___ftdiv (ARG)
         ___ftpack
         ___lwtoft (ARG)
           ___ftpack
     ___ftpack (ARG)
     ___lwtoft (ARG)
       ___ftpack
   ___ftneg
     ___ftdiv (ARG)
       ___ftpack
       ___lwtoft (ARG)
         ___ftpack
   ___fttol
     _PWM_Max_Duty (ARG)
       ___aldiv
     ___awtoft (ARG)
       _PWM_Max_Duty (ARG)
         ___aldiv
       ___awdiv (ARG)
       ___ftpack (ARG)
     ___ftdiv (ARG)
       ___ftpack
       ___lwtoft (ARG)
         ___ftpack
     ___ftmul (ARG)
       _PWM_Max_Duty (ARG)
         ___aldiv
       ___awtoft (ARG)
         _PWM_Max_Duty (ARG)
           ___aldiv
         ___awdiv (ARG)
         ___ftpack (ARG)
       ___ftadd (ARG)
         ___ftdiv (ARG)
           ___ftpack
           ___lwtoft (ARG)
             ___ftpack
         ___ftneg (ARG)
           ___ftdiv (ARG)
             ___ftpack
             ___lwtoft (ARG)
               ___ftpack
         ___ftpack (ARG)
         ___ftpack (ARG)
       ___ftdiv (ARG)
         ___ftpack
         ___lwtoft (ARG)
           ___ftpack
       ___ftneg (ARG)
         ___ftdiv (ARG)
           ___ftpack
           ___lwtoft (ARG)
             ___ftpack
       ___ftpack (ARG)
       ___lwtoft (ARG)
         ___ftpack
     ___lwtoft (ARG)
       ___ftpack

 Address spaces:
Name               Size   Autos  Total    Cost      Usage
BITCOMMON            E      0       0       0        0.0%
EEDATA             100      0       0       0        0.0%
NULL                 0      0       0       0        0.0%
CODE                 0      0       0       0        0.0%
COMMON               E      E       E       1      100.0%
BITSFR0              0      0       0       1        0.0%
SFR0                 0      0       0       1        0.0%
BITSFR1              0      0       0       2        0.0%
SFR1                 0      0       0       2        0.0%
STACK                0      0       0       2        0.0%
ABS                  0      0      83       3        0.0%
BITBANK0            50      0       0       4        0.0%
BITSFR3              0      0       0       4        0.0%
SFR3                 0      0       0       4        0.0%
BANK0               50     44      48       5       90.0%
BITSFR2              0      0       0       5        0.0%
SFR2                 0      0       0       5        0.0%
BITBANK1            50      0       0       6        0.0%
BANK1               50     2D      2D       7       56.3%
BITBANK3            60      0       0       8        0.0%
BANK3               60      0       0       9        0.0%
BITBANK2            60      0       0      10        0.0%
BANK2               60      0       0      11        0.0%
DATA                 0      0      83      12        0.0%


Microchip Technology PIC Macro Assembler V1.45 build -152302408 
Symbol Table                                                                                   Wed Jan 02 13:50:13 2019

            __CFG_CP$OFF 0000                       l98 0C67              main@LastOut 00BB  
           ___awdiv@sign 0076              main@LineOut 00B5             ___ftadd@exp1 003F  
           ___ftadd@exp2 003E              __CFG_LVP$ON 0000             ___ftadd@sign 003D  
                    l123 0DE7                      l124 03E4                      l142 0467  
                    l134 0307                      l135 035C                      l400 0A81  
                    l401 0A89                      l146 06A4                      l147 06F9  
                    l424 01FB                      l287 0BAF                      l393 0A6C  
                    l484 0B83                      _RB0 0030                      _RB1 0031  
                    _RB2 0032                      _RB3 0033                      _RD0 0040  
                    _RD1 0041                      _RD2 0042                      _RD3 0043  
                    _RD5 0045                      _RD6 0046                      _RD7 0047  
                    _PR2 0092             __CFG_CPD$OFF 0000             __CFG_FOSC$HS 0000  
           ___ftdiv@cntr 002A             ___ftdiv@sign 002F                     l2020 03FC  
                   l2032 0428                     l1420 0BD0                     l1412 0BC0  
                   l2052 04BE                     l2044 045A                     l1430 0C08  
                   l1422 0BE0                     l2038 0441                     l1512 00AE  
                   l2072 064F                     l1434 0C15                     l1506 0098  
                   l1380 0A51                     l1540 0125                     l1524 00ED  
                   l1612 0B02                     l2068 0632                     l1438 0C23  
                   l1390 0A7B                     l1382 0A56                     l1374 0A3E  
                   l1454 08BC                     l1470 0CF0                     l1622 0073  
                   l1702 01C1                     l1464 0CDA                     l1536 0115  
                   l1528 00FD                     l1632 098A                     l1720 020D  
                   l1704 01CD                     l2096 0781                     l1378 0A45  
                   l1650 09AB                     l1714 01EB                     l1706 01D2  
                   l1388 0A71                     l1492 0D54                     l1484 0D35  
                   l1556 0B29                     l1660 09CC                     l1724 021F  
                   l1716 01F7                     l1708 01D6                     l1900 0CA6  
                   l1582 0B78                     l1574 0B5B                     l1638 0995  
                   l1734 0242                     l1742 0A00                     l1584 0B86  
                   l1576 0B6B                     l1664 09D4                     l1656 09C1  
                   l1648 099D                     l1920 0C68                     l1674 017C  
                   l1746 0A27                     l1588 0B94                     l1684 0192  
                   l1932 0DFF                     l1678 0183                     l1918 0DDE  
                   l1696 01AC                     l1960 0E6A                     l1944 0E23  
                   l1954 0E51                     l1890 0C86                     l1948 0E38  
                   l1982 0295                     l1966 0EC1                     l1896 0C9C  
                   l1986 02B2                     u2025 0B30                     u2115 090D  
                   u2125 0916                     u2150 0AFF                     u2055 0B5C  
                   u2135 094C                     u2145 0955                     u2225 09A0  
                   u2170 0070                     u3107 03C6                     u2085 0B7A  
                   u2245 09AC                     u3117 0763                     u1615 0A74  
                   u2255 09B8                     u2415 01C2                     u3127 07EB  
                   u1705 0BD4                     u2265 09C2                     u1725 0BE2  
                   u2445 01D7                     u2541 09F3                     u3085 077F  
                   u2542 09F4                     u1735 0BF7                     u1655 0A90  
                   u1575 0A4A                     u1815 0D02                     u2543 09F9  
                   u2544 09FA                     u1745 0C09                     u1825 0D14  
                   u1905 00CC                     u2385 01AD                     u2561 0A1A  
                   u3097 0DCC                     u2562 0A1B                     u1595 0A65  
                   u1835 0D36                     u2475 01EC                     u2563 0A20  
                   u2564 0A21                     u1845 0D47                     u1775 08E0  
                   u1855 0D55                     u1935 00FE                     u1945 0106  
                   u1895 00BA                     u2855 0DFD                     u1985 0126  
                   u1995 012E                     u2955 03E2                     u2985 03FA  
           _PWM_Max_Duty 08D5             __CFG_WRT$OFF 0000                     _main 0C2C  
                   _freq 0064             ___ftpack@arg 0070             ___ftpack@exp 0073  
                   btemp 007E                     start 0000             ___ftmul@cntr 004E  
           ___ftmul@sign 004F             ___fttol@exp1 005D             ___fttol@lval 0059  
        __end_of___aldiv 0C2C                    ?_main 0070                    _CCP1X 00BD  
                  _CCP1Y 00BC                    _CCP2X 00ED                    _CCP2Y 00EC  
        __end_of___awdiv 09D9          __end_of___ftadd 025C            __CFG_WDTE$OFF 0000  
        __end_of___ftdiv 0D7A          __end_of___ftneg 0013          __end_of___ftmul 0153  
        ___awdiv@divisor 0070          __end_of___fttol 0B9D          ___awdiv@counter 0075  
                  _TRISB 0086                    _TRISC 0087                    _TRISD 0088  
          __CFG_PWRTE$ON 0000       __size_of_PWM1_Init 003F       __size_of_PWM1_Duty 006D  
     __size_of_PWM2_Init 003F       __size_of_PWM2_Duty 006D            ___awtoft@sign 007D  
          ___ftpack@sign 0074                    main@i 00A2                    main@n 00CB  
         __CFG_BOREN$OFF 0000             main@position 00AC                    status 0003  
                  wtemp0 007E          __initialization 07FC             __end_of_main 07F9  
                 ??_main 0062            ___fttol@sign1 0058                   _CCP1M2 00BA  
                 _CCP1M3 00BB                   _CCP2M2 00EA                   _CCP2M3 00EB  
                 _CCPR1L 0015                   _CCPR2L 001B         ___awdiv@dividend 0072  
       __end_of___awtoft 08D5         __end_of___ftpack 0AA2         __end_of___lwtoft 08B0  
                 _TMR2ON 0092                   _TRISC1 0439                   _TRISC2 043A  
          main@lasterror 00AF        __end_of_PWM1_Init 0941                   ___ftge 09D9  
      __end_of_PWM1_Duty 0B0F        __end_of_PWM2_Init 0980        __end_of_PWM2_Duty 0080  
              ??___aldiv 0078                ??___awdiv 0074                ??___ftadd 0039  
              ??___ftdiv 0026                ??___ftneg 007C                ??___ftmul 0046  
              ??___fttol 0054         ___awdiv@quotient 0077                   main@Kd 00A9  
                 main@Kp 00A6    ___ftmul@f3_as_product 004B  __end_of__initialization 07FC  
             ___ftadd@f1 0033               ___ftadd@f2 0036               ___ftge@ff1 0070  
             ___ftge@ff2 0073               ___ftdiv@f1 0023               ___ftdiv@f2 0020  
             ___ftdiv@f3 002B               ___ftneg@f1 0030               ___awtoft@c 0028  
             ___ftmul@f1 0040               ___ftmul@f2 0043               ___fttol@f1 0050  
         __pcstackCOMMON 0070               ___lwtoft@c 0078           main@adjustment 00C0  
             __pmaintext 0C2C                  ?___ftge 0070                ?___awtoft 0028  
              ?___ftpack 0070                  _T2CKPS0 0090                  _T2CKPS1 0091  
              ?___lwtoft 0078                  ___aldiv 0B9D          __size_of___ftge 005D  
                ___awdiv 0980                  ___ftadd 0153                  ___ftdiv 0CC2  
                ___ftneg 0009                  ___ftmul 0080                  ___fttol 0B0F  
             ??___awtoft 002B               ??___ftpack 0075                  __ptext1 0009  
                __ptext2 09D9                  __ptext3 0153                  __ptext4 0980  
                __ptext5 0941                  __ptext6 0013                  __ptext7 0902  
                __ptext8 0AA2                  __ptext9 089C               ??___lwtoft 007B  
       ___aldiv@dividend 0074                  main@sum 00C3     end_of_initialization 07FC  
       ___aldiv@quotient 0022                  psplit$0 70018                  psplit$1 180019  
              _PWM1_Init 0902                _PWM1_Duty 0AA2                _PWM2_Init 0941  
              _PWM2_Duty 0013     pnum$maintext_split_1 0018     pnum$maintext_split_2 0019  
             main@Lspeed 00C5               main@Rspeed 00C8              ___ftdiv@exp 002E  
             main@square 00A0              ___ftmul@exp 004A           __end_of___ftge 0A36  
             ?_PWM1_Init 0026               ?_PWM1_Duty 005E               ?_PWM2_Init 0026  
             ?_PWM2_Duty 005E      start_initialization 07FC            ?_PWM_Max_Duty 0026  
               ??___ftge 0076        __size_of___awtoft 0025        __size_of___ftpack 006C  
              ___latbits 0002        __size_of___lwtoft 0014            __pcstackBANK0 0020  
          __pcstackBANK1 00A0           ??_PWM_Max_Duty 0079                __pnvBANK0 0064  
               ?___aldiv 0070                 ?___awdiv 0070                 ?___ftadd 0033  
               ?___ftdiv 0020                 ?___ftneg 0030                 ?___ftmul 0040  
               ?___fttol 0050              ??_PWM1_Init 0079              ??_PWM1_Duty 0060  
            ??_PWM2_Init 0079              ??_PWM2_Duty 0060          ___aldiv@divisor 0070  
        ___aldiv@counter 0020            PWM1_Duty@duty 005E            PWM2_Duty@duty 005E  
              main@error 00BD         __size_of___aldiv 008F     __end_of_PWM_Max_Duty 0902  
           pnum$maintext 0007         __size_of___awdiv 0059         __size_of___ftadd 0109  
       __size_of___ftdiv 00B8         __size_of___ftneg 000A         __size_of___ftmul 00D3  
       __size_of___fttol 008E                 ___awtoft 08B0                 ___ftpack 0A36  
               ___lwtoft 089C                 _main$496 00B2                 _main$497 00B7  
               _main$498 00B9                 __ptext10 0B0F                 __ptext11 0080  
               __ptext12 0CC2                 __ptext13 08B0                 __ptext14 0A36  
               __ptext15 08D5                 __ptext16 0B9D            __size_of_main FBCD  
           PWM1_Init@fre 0026             PWM2_Init@fre 0026                 main@i_93 00A4  
           ___aldiv@sign 0021    __size_of_PWM_Max_Duty 002D  
